GAS LISTING /tmp/cctiEWRC.s 			page 1


   1              		.file	"VeryLongModular.cpp"
   2              		.text
   3              	.Ltext0:
   4              		.file 0 "/home/runner/work/factor-by-gnfs/factor-by-gnfs/gnfs" "VeryLongModular.cpp"
   5              	#APP
   6              		.globl _ZSt21ios_base_library_initv
   7              	#NO_APP
   8              		.align 2
   9              		.p2align 4
  10              		.globl	_ZN15VeryLongModularD2Ev
  11              		.type	_ZN15VeryLongModularD2Ev, @function
  12              	_ZN15VeryLongModularD2Ev:
  13              	.LVL0:
  14              	.LFB2571:
  15              		.file 1 "VeryLongModular.cpp"
   1:VeryLongModular.cpp **** #include "VeryLongModular.h"
   2:VeryLongModular.cpp **** 
   3:VeryLongModular.cpp **** mpz_t VeryLongModular::modulus_;
   4:VeryLongModular.cpp **** int VeryLongModular::staticInitDone = 0;
   5:VeryLongModular.cpp **** 
   6:VeryLongModular.cpp **** VeryLongModular::VeryLongModular()
   7:VeryLongModular.cpp **** {
   8:VeryLongModular.cpp ****     staticInit();
   9:VeryLongModular.cpp ****     mpz_init(vl_);
  10:VeryLongModular.cpp **** }
  11:VeryLongModular.cpp **** 
  12:VeryLongModular.cpp **** VeryLongModular::~VeryLongModular()
  16              		.loc 1 12 1 view -0
  17              		.cfi_startproc
  18              		.cfi_personality 0x9b,DW.ref.__gxx_personality_v0
  19              		.cfi_lsda 0x1b,.LLSDA2571
  20              		.loc 1 12 1 is_stmt 0 view .LVU1
  21 0000 F30F1EFA 		endbr64
  22              	.LBB307:
  13:VeryLongModular.cpp **** {
  14:VeryLongModular.cpp ****     mpz_clear(vl_);
  23              		.loc 1 14 5 is_stmt 1 view .LVU2
  24              	.LBE307:
  12:VeryLongModular.cpp **** {
  25              		.loc 1 12 1 is_stmt 0 view .LVU3
  26 0004 4883EC08 		subq	$8, %rsp
  27              		.cfi_def_cfa_offset 16
  28              	.LBB308:
  29              		.loc 1 14 14 view .LVU4
  30 0008 E8000000 		call	__gmpz_clear@PLT
  30      00
  31              	.LVL1:
  32              		.loc 1 14 14 view .LVU5
  33              	.LBE308:
  15:VeryLongModular.cpp **** }
  34              		.loc 1 15 1 view .LVU6
  35 000d 4883C408 		addq	$8, %rsp
  36              		.cfi_def_cfa_offset 8
  37 0011 C3       		ret
  38              		.cfi_endproc
  39              	.LFE2571:
  40              		.globl	__gxx_personality_v0
GAS LISTING /tmp/cctiEWRC.s 			page 2


  41              		.section	.gcc_except_table,"a",@progbits
  42              	.LLSDA2571:
  43 0000 FF       		.byte	0xff
  44 0001 FF       		.byte	0xff
  45 0002 01       		.byte	0x1
  46 0003 00       		.uleb128 .LLSDACSE2571-.LLSDACSB2571
  47              	.LLSDACSB2571:
  48              	.LLSDACSE2571:
  49              		.text
  50              		.size	_ZN15VeryLongModularD2Ev, .-_ZN15VeryLongModularD2Ev
  51              		.globl	_ZN15VeryLongModularD1Ev
  52              		.set	_ZN15VeryLongModularD1Ev,_ZN15VeryLongModularD2Ev
  53              		.section	.text._ZN8VeryLongD2Ev,"axG",@progbits,_ZN8VeryLongD5Ev,comdat
  54              		.align 2
  55              		.p2align 4
  56              		.weak	_ZN8VeryLongD2Ev
  57              		.type	_ZN8VeryLongD2Ev, @function
  58              	_ZN8VeryLongD2Ev:
  59              	.LVL2:
  60              	.LFB2441:
  61              		.file 2 "VeryLong.h"
   1:VeryLong.h    **** #ifndef __VERYLONG_H
   2:VeryLong.h    **** #define __VERYLONG_H
   3:VeryLong.h    **** #include <iostream>
   4:VeryLong.h    **** #include <stdexcept>
   5:VeryLong.h    **** #include <stdint.h>
   6:VeryLong.h    **** using std::ostream;
   7:VeryLong.h    **** #include <stdio.h>
   8:VeryLong.h    **** #include <math.h>
   9:VeryLong.h    **** #include <sys/types.h>
  10:VeryLong.h    **** #ifndef WIN32
  11:VeryLong.h    **** #include <netinet/in.h>
  12:VeryLong.h    **** #endif
  13:VeryLong.h    **** #include <vector>
  14:VeryLong.h    **** #include <gmp.h>
  15:VeryLong.h    **** #include "mod.h"
  16:VeryLong.h    **** #include "MPFloat.h"
  17:VeryLong.h    **** #define USE_QS 1
  18:VeryLong.h    **** class VeryLong
  19:VeryLong.h    **** {
  20:VeryLong.h    **** public:
  21:VeryLong.h    ****     friend class VeryLongModular;
  22:VeryLong.h    ****     VeryLong()
  23:VeryLong.h    ****     {
  24:VeryLong.h    ****         mpz_init(vl_);
  25:VeryLong.h    ****     }
  26:VeryLong.h    ****     VeryLong(const VeryLong& vl)
  27:VeryLong.h    ****     {
  28:VeryLong.h    ****         mpz_init_set(vl_, vl.vl_);
  29:VeryLong.h    ****     }
  30:VeryLong.h    ****     VeryLong(const char* s)
  31:VeryLong.h    ****     {
  32:VeryLong.h    ****         mpz_init_set_str(vl_, s, 0);
  33:VeryLong.h    ****     }
  34:VeryLong.h    ****     VeryLong(const std::string& s)
  35:VeryLong.h    ****     {
  36:VeryLong.h    ****         std::string s1(s);
GAS LISTING /tmp/cctiEWRC.s 			page 3


  37:VeryLong.h    ****         mpz_init_set_str(vl_, s1.c_str(), 0);
  38:VeryLong.h    ****     }
  39:VeryLong.h    ****     VeryLong(long l)
  40:VeryLong.h    ****     {
  41:VeryLong.h    ****         mpz_init_set_si(vl_, l);
  42:VeryLong.h    ****     }
  43:VeryLong.h    ****     VeryLong(unsigned long l)
  44:VeryLong.h    ****     {
  45:VeryLong.h    ****         mpz_init_set_ui(vl_, l);
  46:VeryLong.h    ****     }
  47:VeryLong.h    ****     VeryLong(unsigned long long l)
  48:VeryLong.h    ****     {
  49:VeryLong.h    ****         uint32_t q = static_cast<uint32_t>(l >> 32);
  50:VeryLong.h    ****         uint32_t r = static_cast<uint32_t>(l & 0x00000000ffffffff);
  51:VeryLong.h    ****         mpz_init_set_ui(vl_, q);
  52:VeryLong.h    ****         mpz_mul_2exp(vl_, vl_, 32);
  53:VeryLong.h    ****         mpz_add_ui(vl_, vl_, r);
  54:VeryLong.h    ****     }
  55:VeryLong.h    ****     VeryLong(long long l)
  56:VeryLong.h    ****     {
  57:VeryLong.h    ****         volatile int negative = 0;
  58:VeryLong.h    ****         if (l < 0)
  59:VeryLong.h    ****         {
  60:VeryLong.h    ****             l = -l;
  61:VeryLong.h    ****             negative = 1;
  62:VeryLong.h    ****         }
  63:VeryLong.h    ****         volatile uint32_t q = static_cast<uint32_t>(l >> 32);
  64:VeryLong.h    ****         volatile uint32_t r = static_cast<uint32_t>(l & 0x00000000ffffffff);
  65:VeryLong.h    ****         mpz_init_set_ui(vl_, q);
  66:VeryLong.h    ****         mpz_mul_2exp(vl_, vl_, 32);
  67:VeryLong.h    ****         mpz_add_ui(vl_, vl_, r);
  68:VeryLong.h    ****         if (negative) mpz_neg(vl_, vl_);
  69:VeryLong.h    ****     }
  70:VeryLong.h    ****     VeryLong(double d)
  71:VeryLong.h    ****     {
  72:VeryLong.h    ****         mpz_init_set_d(vl_, d);
  73:VeryLong.h    ****     }
  74:VeryLong.h    ****     explicit VeryLong(long double d)
  75:VeryLong.h    ****     {
  76:VeryLong.h    ****         mpz_init_set_d(vl_, d);
  77:VeryLong.h    ****     }
  78:VeryLong.h    ****     ~VeryLong()
  62              		.loc 2 78 5 is_stmt 1 view -0
  63              		.cfi_startproc
  64              		.cfi_personality 0x9b,DW.ref.__gxx_personality_v0
  65              		.cfi_lsda 0x1b,.LLSDA2441
  66              		.loc 2 78 5 is_stmt 0 view .LVU8
  67 0000 F30F1EFA 		endbr64
  68              	.LBB309:
  79:VeryLong.h    ****     {
  80:VeryLong.h    ****         mpz_clear(vl_);
  69              		.loc 2 80 9 is_stmt 1 view .LVU9
  70              	.LBE309:
  78:VeryLong.h    ****     {
  71              		.loc 2 78 5 is_stmt 0 view .LVU10
  72 0004 4883EC08 		subq	$8, %rsp
  73              		.cfi_def_cfa_offset 16
GAS LISTING /tmp/cctiEWRC.s 			page 4


  74              	.LBB310:
  75              		.loc 2 80 18 view .LVU11
  76 0008 E8000000 		call	__gmpz_clear@PLT
  76      00
  77              	.LVL3:
  78              		.loc 2 80 18 view .LVU12
  79              	.LBE310:
  81:VeryLong.h    ****     }
  80              		.loc 2 81 5 view .LVU13
  81 000d 4883C408 		addq	$8, %rsp
  82              		.cfi_def_cfa_offset 8
  83 0011 C3       		ret
  84              		.cfi_endproc
  85              	.LFE2441:
  86              		.section	.gcc_except_table
  87              	.LLSDA2441:
  88 0004 FF       		.byte	0xff
  89 0005 FF       		.byte	0xff
  90 0006 01       		.byte	0x1
  91 0007 00       		.uleb128 .LLSDACSE2441-.LLSDACSB2441
  92              	.LLSDACSB2441:
  93              	.LLSDACSE2441:
  94              		.section	.text._ZN8VeryLongD2Ev,"axG",@progbits,_ZN8VeryLongD5Ev,comdat
  95              		.size	_ZN8VeryLongD2Ev, .-_ZN8VeryLongD2Ev
  96              		.weak	_ZN8VeryLongD1Ev
  97              		.set	_ZN8VeryLongD1Ev,_ZN8VeryLongD2Ev
  98              		.section	.rodata.str1.8,"aMS",@progbits,1
  99              		.align 8
 100              	.LC0:
 101 0000 62617369 		.string	"basic_string: construction from null is not valid"
 101      635F7374 
 101      72696E67 
 101      3A20636F 
 101      6E737472 
 102              		.section	.text.unlikely,"ax",@progbits
 103              		.align 2
 104              		.type	_ZNSt7__cxx1112basic_stringIcSt11char_traitsIcESaIcEEC2EPKcRKS3_.isra.0, @function
 105              	_ZNSt7__cxx1112basic_stringIcSt11char_traitsIcESaIcEEC2EPKcRKS3_.isra.0:
 106              	.LVL4:
 107              	.LFB3276:
 108              		.file 3 "/usr/include/c++/13/bits/basic_string.h"
   1:/usr/include/c++/13/bits/basic_string.h **** // Components for manipulating sequences of characters -*- C++ -*-
   2:/usr/include/c++/13/bits/basic_string.h **** 
   3:/usr/include/c++/13/bits/basic_string.h **** // Copyright (C) 1997-2023 Free Software Foundation, Inc.
   4:/usr/include/c++/13/bits/basic_string.h **** //
   5:/usr/include/c++/13/bits/basic_string.h **** // This file is part of the GNU ISO C++ Library.  This library is free
   6:/usr/include/c++/13/bits/basic_string.h **** // software; you can redistribute it and/or modify it under the
   7:/usr/include/c++/13/bits/basic_string.h **** // terms of the GNU General Public License as published by the
   8:/usr/include/c++/13/bits/basic_string.h **** // Free Software Foundation; either version 3, or (at your option)
   9:/usr/include/c++/13/bits/basic_string.h **** // any later version.
  10:/usr/include/c++/13/bits/basic_string.h **** 
  11:/usr/include/c++/13/bits/basic_string.h **** // This library is distributed in the hope that it will be useful,
  12:/usr/include/c++/13/bits/basic_string.h **** // but WITHOUT ANY WARRANTY; without even the implied warranty of
  13:/usr/include/c++/13/bits/basic_string.h **** // MERCHANTABILITY or FITNESS FOR A PARTICULAR PURPOSE.  See the
  14:/usr/include/c++/13/bits/basic_string.h **** // GNU General Public License for more details.
  15:/usr/include/c++/13/bits/basic_string.h **** 
  16:/usr/include/c++/13/bits/basic_string.h **** // Under Section 7 of GPL version 3, you are granted additional
GAS LISTING /tmp/cctiEWRC.s 			page 5


  17:/usr/include/c++/13/bits/basic_string.h **** // permissions described in the GCC Runtime Library Exception, version
  18:/usr/include/c++/13/bits/basic_string.h **** // 3.1, as published by the Free Software Foundation.
  19:/usr/include/c++/13/bits/basic_string.h **** 
  20:/usr/include/c++/13/bits/basic_string.h **** // You should have received a copy of the GNU General Public License and
  21:/usr/include/c++/13/bits/basic_string.h **** // a copy of the GCC Runtime Library Exception along with this program;
  22:/usr/include/c++/13/bits/basic_string.h **** // see the files COPYING3 and COPYING.RUNTIME respectively.  If not, see
  23:/usr/include/c++/13/bits/basic_string.h **** // <http://www.gnu.org/licenses/>.
  24:/usr/include/c++/13/bits/basic_string.h **** 
  25:/usr/include/c++/13/bits/basic_string.h **** /** @file bits/basic_string.h
  26:/usr/include/c++/13/bits/basic_string.h ****  *  This is an internal header file, included by other library headers.
  27:/usr/include/c++/13/bits/basic_string.h ****  *  Do not attempt to use it directly. @headername{string}
  28:/usr/include/c++/13/bits/basic_string.h ****  */
  29:/usr/include/c++/13/bits/basic_string.h **** 
  30:/usr/include/c++/13/bits/basic_string.h **** //
  31:/usr/include/c++/13/bits/basic_string.h **** // ISO C++ 14882: 21 Strings library
  32:/usr/include/c++/13/bits/basic_string.h **** //
  33:/usr/include/c++/13/bits/basic_string.h **** 
  34:/usr/include/c++/13/bits/basic_string.h **** #ifndef _BASIC_STRING_H
  35:/usr/include/c++/13/bits/basic_string.h **** #define _BASIC_STRING_H 1
  36:/usr/include/c++/13/bits/basic_string.h **** 
  37:/usr/include/c++/13/bits/basic_string.h **** #pragma GCC system_header
  38:/usr/include/c++/13/bits/basic_string.h **** 
  39:/usr/include/c++/13/bits/basic_string.h **** #include <ext/alloc_traits.h>
  40:/usr/include/c++/13/bits/basic_string.h **** #include <debug/debug.h>
  41:/usr/include/c++/13/bits/basic_string.h **** 
  42:/usr/include/c++/13/bits/basic_string.h **** #if __cplusplus >= 201103L
  43:/usr/include/c++/13/bits/basic_string.h **** #include <initializer_list>
  44:/usr/include/c++/13/bits/basic_string.h **** #endif
  45:/usr/include/c++/13/bits/basic_string.h **** 
  46:/usr/include/c++/13/bits/basic_string.h **** #if __cplusplus >= 201703L
  47:/usr/include/c++/13/bits/basic_string.h **** # include <string_view>
  48:/usr/include/c++/13/bits/basic_string.h **** #endif
  49:/usr/include/c++/13/bits/basic_string.h **** 
  50:/usr/include/c++/13/bits/basic_string.h **** #if ! _GLIBCXX_USE_CXX11_ABI
  51:/usr/include/c++/13/bits/basic_string.h **** # include "cow_string.h"
  52:/usr/include/c++/13/bits/basic_string.h **** #else
  53:/usr/include/c++/13/bits/basic_string.h **** namespace std _GLIBCXX_VISIBILITY(default)
  54:/usr/include/c++/13/bits/basic_string.h **** {
  55:/usr/include/c++/13/bits/basic_string.h **** _GLIBCXX_BEGIN_NAMESPACE_VERSION
  56:/usr/include/c++/13/bits/basic_string.h **** _GLIBCXX_BEGIN_NAMESPACE_CXX11
  57:/usr/include/c++/13/bits/basic_string.h **** 
  58:/usr/include/c++/13/bits/basic_string.h **** #ifdef __cpp_lib_is_constant_evaluated
  59:/usr/include/c++/13/bits/basic_string.h **** // Support P0980R1 in C++20.
  60:/usr/include/c++/13/bits/basic_string.h **** # define __cpp_lib_constexpr_string 201907L
  61:/usr/include/c++/13/bits/basic_string.h **** #elif __cplusplus >= 201703L && _GLIBCXX_HAVE_IS_CONSTANT_EVALUATED
  62:/usr/include/c++/13/bits/basic_string.h **** // Support P0426R1 changes to char_traits in C++17.
  63:/usr/include/c++/13/bits/basic_string.h **** # define __cpp_lib_constexpr_string 201611L
  64:/usr/include/c++/13/bits/basic_string.h **** #endif
  65:/usr/include/c++/13/bits/basic_string.h **** 
  66:/usr/include/c++/13/bits/basic_string.h ****   /**
  67:/usr/include/c++/13/bits/basic_string.h ****    *  @class basic_string basic_string.h <string>
  68:/usr/include/c++/13/bits/basic_string.h ****    *  @brief  Managing sequences of characters and character-like objects.
  69:/usr/include/c++/13/bits/basic_string.h ****    *
  70:/usr/include/c++/13/bits/basic_string.h ****    *  @ingroup strings
  71:/usr/include/c++/13/bits/basic_string.h ****    *  @ingroup sequences
  72:/usr/include/c++/13/bits/basic_string.h ****    *  @headerfile string
  73:/usr/include/c++/13/bits/basic_string.h ****    *  @since C++98
GAS LISTING /tmp/cctiEWRC.s 			page 6


  74:/usr/include/c++/13/bits/basic_string.h ****    *
  75:/usr/include/c++/13/bits/basic_string.h ****    *  @tparam _CharT  Type of character
  76:/usr/include/c++/13/bits/basic_string.h ****    *  @tparam _Traits  Traits for character type, defaults to
  77:/usr/include/c++/13/bits/basic_string.h ****    *                   char_traits<_CharT>.
  78:/usr/include/c++/13/bits/basic_string.h ****    *  @tparam _Alloc  Allocator type, defaults to allocator<_CharT>.
  79:/usr/include/c++/13/bits/basic_string.h ****    *
  80:/usr/include/c++/13/bits/basic_string.h ****    *  Meets the requirements of a <a href="tables.html#65">container</a>, a
  81:/usr/include/c++/13/bits/basic_string.h ****    *  <a href="tables.html#66">reversible container</a>, and a
  82:/usr/include/c++/13/bits/basic_string.h ****    *  <a href="tables.html#67">sequence</a>.  Of the
  83:/usr/include/c++/13/bits/basic_string.h ****    *  <a href="tables.html#68">optional sequence requirements</a>, only
  84:/usr/include/c++/13/bits/basic_string.h ****    *  @c push_back, @c at, and @c %array access are supported.
  85:/usr/include/c++/13/bits/basic_string.h ****    */
  86:/usr/include/c++/13/bits/basic_string.h ****   template<typename _CharT, typename _Traits, typename _Alloc>
  87:/usr/include/c++/13/bits/basic_string.h ****     class basic_string
  88:/usr/include/c++/13/bits/basic_string.h ****     {
  89:/usr/include/c++/13/bits/basic_string.h ****       typedef typename __gnu_cxx::__alloc_traits<_Alloc>::template
  90:/usr/include/c++/13/bits/basic_string.h **** 	rebind<_CharT>::other _Char_alloc_type;
  91:/usr/include/c++/13/bits/basic_string.h **** 
  92:/usr/include/c++/13/bits/basic_string.h ****       typedef __gnu_cxx::__alloc_traits<_Char_alloc_type> _Alloc_traits;
  93:/usr/include/c++/13/bits/basic_string.h **** 
  94:/usr/include/c++/13/bits/basic_string.h ****       // Types:
  95:/usr/include/c++/13/bits/basic_string.h ****     public:
  96:/usr/include/c++/13/bits/basic_string.h ****       typedef _Traits					traits_type;
  97:/usr/include/c++/13/bits/basic_string.h ****       typedef typename _Traits::char_type		value_type;
  98:/usr/include/c++/13/bits/basic_string.h ****       typedef _Char_alloc_type				allocator_type;
  99:/usr/include/c++/13/bits/basic_string.h ****       typedef typename _Alloc_traits::size_type		size_type;
 100:/usr/include/c++/13/bits/basic_string.h ****       typedef typename _Alloc_traits::difference_type	difference_type;
 101:/usr/include/c++/13/bits/basic_string.h ****       typedef typename _Alloc_traits::reference		reference;
 102:/usr/include/c++/13/bits/basic_string.h ****       typedef typename _Alloc_traits::const_reference	const_reference;
 103:/usr/include/c++/13/bits/basic_string.h ****       typedef typename _Alloc_traits::pointer		pointer;
 104:/usr/include/c++/13/bits/basic_string.h ****       typedef typename _Alloc_traits::const_pointer	const_pointer;
 105:/usr/include/c++/13/bits/basic_string.h ****       typedef __gnu_cxx::__normal_iterator<pointer, basic_string>  iterator;
 106:/usr/include/c++/13/bits/basic_string.h ****       typedef __gnu_cxx::__normal_iterator<const_pointer, basic_string>
 107:/usr/include/c++/13/bits/basic_string.h **** 							const_iterator;
 108:/usr/include/c++/13/bits/basic_string.h ****       typedef std::reverse_iterator<const_iterator>	const_reverse_iterator;
 109:/usr/include/c++/13/bits/basic_string.h ****       typedef std::reverse_iterator<iterator>		reverse_iterator;
 110:/usr/include/c++/13/bits/basic_string.h **** 
 111:/usr/include/c++/13/bits/basic_string.h ****       ///  Value returned by various member functions when they fail.
 112:/usr/include/c++/13/bits/basic_string.h ****       static const size_type	npos = static_cast<size_type>(-1);
 113:/usr/include/c++/13/bits/basic_string.h **** 
 114:/usr/include/c++/13/bits/basic_string.h ****     protected:
 115:/usr/include/c++/13/bits/basic_string.h ****       // type used for positions in insert, erase etc.
 116:/usr/include/c++/13/bits/basic_string.h **** #if __cplusplus < 201103L
 117:/usr/include/c++/13/bits/basic_string.h ****       typedef iterator __const_iterator;
 118:/usr/include/c++/13/bits/basic_string.h **** #else
 119:/usr/include/c++/13/bits/basic_string.h ****       typedef const_iterator __const_iterator;
 120:/usr/include/c++/13/bits/basic_string.h **** #endif
 121:/usr/include/c++/13/bits/basic_string.h **** 
 122:/usr/include/c++/13/bits/basic_string.h ****     private:
 123:/usr/include/c++/13/bits/basic_string.h ****       static _GLIBCXX20_CONSTEXPR pointer
 124:/usr/include/c++/13/bits/basic_string.h ****       _S_allocate(_Char_alloc_type& __a, size_type __n)
 125:/usr/include/c++/13/bits/basic_string.h ****       {
 126:/usr/include/c++/13/bits/basic_string.h **** 	pointer __p = _Alloc_traits::allocate(__a, __n);
 127:/usr/include/c++/13/bits/basic_string.h **** #if __cpp_lib_constexpr_string >= 201907L
 128:/usr/include/c++/13/bits/basic_string.h **** 	// std::char_traits begins the lifetime of characters,
 129:/usr/include/c++/13/bits/basic_string.h **** 	// but custom traits might not, so do it here.
 130:/usr/include/c++/13/bits/basic_string.h **** 	if constexpr (!is_same_v<_Traits, char_traits<_CharT>>)
GAS LISTING /tmp/cctiEWRC.s 			page 7


 131:/usr/include/c++/13/bits/basic_string.h **** 	  if (std::__is_constant_evaluated())
 132:/usr/include/c++/13/bits/basic_string.h **** 	    // Begin the lifetime of characters in allocated storage.
 133:/usr/include/c++/13/bits/basic_string.h **** 	    for (size_type __i = 0; __i < __n; ++__i)
 134:/usr/include/c++/13/bits/basic_string.h **** 	      std::construct_at(__builtin_addressof(__p[__i]));
 135:/usr/include/c++/13/bits/basic_string.h **** #endif
 136:/usr/include/c++/13/bits/basic_string.h **** 	return __p;
 137:/usr/include/c++/13/bits/basic_string.h ****       }
 138:/usr/include/c++/13/bits/basic_string.h **** 
 139:/usr/include/c++/13/bits/basic_string.h **** #if __cplusplus >= 201703L
 140:/usr/include/c++/13/bits/basic_string.h ****       // A helper type for avoiding boiler-plate.
 141:/usr/include/c++/13/bits/basic_string.h ****       typedef basic_string_view<_CharT, _Traits> __sv_type;
 142:/usr/include/c++/13/bits/basic_string.h **** 
 143:/usr/include/c++/13/bits/basic_string.h ****       template<typename _Tp, typename _Res>
 144:/usr/include/c++/13/bits/basic_string.h **** 	using _If_sv = enable_if_t<
 145:/usr/include/c++/13/bits/basic_string.h **** 	  __and_<is_convertible<const _Tp&, __sv_type>,
 146:/usr/include/c++/13/bits/basic_string.h **** 		 __not_<is_convertible<const _Tp*, const basic_string*>>,
 147:/usr/include/c++/13/bits/basic_string.h **** 		 __not_<is_convertible<const _Tp&, const _CharT*>>>::value,
 148:/usr/include/c++/13/bits/basic_string.h **** 	  _Res>;
 149:/usr/include/c++/13/bits/basic_string.h **** 
 150:/usr/include/c++/13/bits/basic_string.h ****       // Allows an implicit conversion to __sv_type.
 151:/usr/include/c++/13/bits/basic_string.h ****       _GLIBCXX20_CONSTEXPR
 152:/usr/include/c++/13/bits/basic_string.h ****       static __sv_type
 153:/usr/include/c++/13/bits/basic_string.h ****       _S_to_string_view(__sv_type __svt) noexcept
 154:/usr/include/c++/13/bits/basic_string.h ****       { return __svt; }
 155:/usr/include/c++/13/bits/basic_string.h **** 
 156:/usr/include/c++/13/bits/basic_string.h ****       // Wraps a string_view by explicit conversion and thus
 157:/usr/include/c++/13/bits/basic_string.h ****       // allows to add an internal constructor that does not
 158:/usr/include/c++/13/bits/basic_string.h ****       // participate in overload resolution when a string_view
 159:/usr/include/c++/13/bits/basic_string.h ****       // is provided.
 160:/usr/include/c++/13/bits/basic_string.h ****       struct __sv_wrapper
 161:/usr/include/c++/13/bits/basic_string.h ****       {
 162:/usr/include/c++/13/bits/basic_string.h **** 	_GLIBCXX20_CONSTEXPR explicit
 163:/usr/include/c++/13/bits/basic_string.h **** 	__sv_wrapper(__sv_type __sv) noexcept : _M_sv(__sv) { }
 164:/usr/include/c++/13/bits/basic_string.h **** 
 165:/usr/include/c++/13/bits/basic_string.h **** 	__sv_type _M_sv;
 166:/usr/include/c++/13/bits/basic_string.h ****       };
 167:/usr/include/c++/13/bits/basic_string.h **** 
 168:/usr/include/c++/13/bits/basic_string.h ****       /**
 169:/usr/include/c++/13/bits/basic_string.h ****        *  @brief  Only internally used: Construct string from a string view
 170:/usr/include/c++/13/bits/basic_string.h ****        *          wrapper.
 171:/usr/include/c++/13/bits/basic_string.h ****        *  @param  __svw  string view wrapper.
 172:/usr/include/c++/13/bits/basic_string.h ****        *  @param  __a  Allocator to use.
 173:/usr/include/c++/13/bits/basic_string.h ****        */
 174:/usr/include/c++/13/bits/basic_string.h ****       _GLIBCXX20_CONSTEXPR
 175:/usr/include/c++/13/bits/basic_string.h ****       explicit
 176:/usr/include/c++/13/bits/basic_string.h ****       basic_string(__sv_wrapper __svw, const _Alloc& __a)
 177:/usr/include/c++/13/bits/basic_string.h ****       : basic_string(__svw._M_sv.data(), __svw._M_sv.size(), __a) { }
 178:/usr/include/c++/13/bits/basic_string.h **** #endif
 179:/usr/include/c++/13/bits/basic_string.h **** 
 180:/usr/include/c++/13/bits/basic_string.h ****       // Use empty-base optimization: http://www.cantrip.org/emptyopt.html
 181:/usr/include/c++/13/bits/basic_string.h ****       struct _Alloc_hider : allocator_type // TODO check __is_final
 182:/usr/include/c++/13/bits/basic_string.h ****       {
 183:/usr/include/c++/13/bits/basic_string.h **** #if __cplusplus < 201103L
 184:/usr/include/c++/13/bits/basic_string.h **** 	_Alloc_hider(pointer __dat, const _Alloc& __a = _Alloc())
 185:/usr/include/c++/13/bits/basic_string.h **** 	: allocator_type(__a), _M_p(__dat) { }
 186:/usr/include/c++/13/bits/basic_string.h **** #else
 187:/usr/include/c++/13/bits/basic_string.h **** 	_GLIBCXX20_CONSTEXPR
GAS LISTING /tmp/cctiEWRC.s 			page 8


 188:/usr/include/c++/13/bits/basic_string.h **** 	_Alloc_hider(pointer __dat, const _Alloc& __a)
 189:/usr/include/c++/13/bits/basic_string.h **** 	: allocator_type(__a), _M_p(__dat) { }
 190:/usr/include/c++/13/bits/basic_string.h **** 
 191:/usr/include/c++/13/bits/basic_string.h **** 	_GLIBCXX20_CONSTEXPR
 192:/usr/include/c++/13/bits/basic_string.h **** 	_Alloc_hider(pointer __dat, _Alloc&& __a = _Alloc())
 193:/usr/include/c++/13/bits/basic_string.h **** 	: allocator_type(std::move(__a)), _M_p(__dat) { }
 194:/usr/include/c++/13/bits/basic_string.h **** #endif
 195:/usr/include/c++/13/bits/basic_string.h **** 
 196:/usr/include/c++/13/bits/basic_string.h **** 	pointer _M_p; // The actual data.
 197:/usr/include/c++/13/bits/basic_string.h ****       };
 198:/usr/include/c++/13/bits/basic_string.h **** 
 199:/usr/include/c++/13/bits/basic_string.h ****       _Alloc_hider	_M_dataplus;
 200:/usr/include/c++/13/bits/basic_string.h ****       size_type		_M_string_length;
 201:/usr/include/c++/13/bits/basic_string.h **** 
 202:/usr/include/c++/13/bits/basic_string.h ****       enum { _S_local_capacity = 15 / sizeof(_CharT) };
 203:/usr/include/c++/13/bits/basic_string.h **** 
 204:/usr/include/c++/13/bits/basic_string.h ****       union
 205:/usr/include/c++/13/bits/basic_string.h ****       {
 206:/usr/include/c++/13/bits/basic_string.h **** 	_CharT           _M_local_buf[_S_local_capacity + 1];
 207:/usr/include/c++/13/bits/basic_string.h **** 	size_type        _M_allocated_capacity;
 208:/usr/include/c++/13/bits/basic_string.h ****       };
 209:/usr/include/c++/13/bits/basic_string.h **** 
 210:/usr/include/c++/13/bits/basic_string.h ****       _GLIBCXX20_CONSTEXPR
 211:/usr/include/c++/13/bits/basic_string.h ****       void
 212:/usr/include/c++/13/bits/basic_string.h ****       _M_data(pointer __p)
 213:/usr/include/c++/13/bits/basic_string.h ****       { _M_dataplus._M_p = __p; }
 214:/usr/include/c++/13/bits/basic_string.h **** 
 215:/usr/include/c++/13/bits/basic_string.h ****       _GLIBCXX20_CONSTEXPR
 216:/usr/include/c++/13/bits/basic_string.h ****       void
 217:/usr/include/c++/13/bits/basic_string.h ****       _M_length(size_type __length)
 218:/usr/include/c++/13/bits/basic_string.h ****       { _M_string_length = __length; }
 219:/usr/include/c++/13/bits/basic_string.h **** 
 220:/usr/include/c++/13/bits/basic_string.h ****       _GLIBCXX20_CONSTEXPR
 221:/usr/include/c++/13/bits/basic_string.h ****       pointer
 222:/usr/include/c++/13/bits/basic_string.h ****       _M_data() const
 223:/usr/include/c++/13/bits/basic_string.h ****       { return _M_dataplus._M_p; }
 224:/usr/include/c++/13/bits/basic_string.h **** 
 225:/usr/include/c++/13/bits/basic_string.h ****       _GLIBCXX20_CONSTEXPR
 226:/usr/include/c++/13/bits/basic_string.h ****       pointer
 227:/usr/include/c++/13/bits/basic_string.h ****       _M_local_data()
 228:/usr/include/c++/13/bits/basic_string.h ****       {
 229:/usr/include/c++/13/bits/basic_string.h **** #if __cplusplus >= 201103L
 230:/usr/include/c++/13/bits/basic_string.h **** 	return std::pointer_traits<pointer>::pointer_to(*_M_local_buf);
 231:/usr/include/c++/13/bits/basic_string.h **** #else
 232:/usr/include/c++/13/bits/basic_string.h **** 	return pointer(_M_local_buf);
 233:/usr/include/c++/13/bits/basic_string.h **** #endif
 234:/usr/include/c++/13/bits/basic_string.h ****       }
 235:/usr/include/c++/13/bits/basic_string.h **** 
 236:/usr/include/c++/13/bits/basic_string.h ****       _GLIBCXX20_CONSTEXPR
 237:/usr/include/c++/13/bits/basic_string.h ****       const_pointer
 238:/usr/include/c++/13/bits/basic_string.h ****       _M_local_data() const
 239:/usr/include/c++/13/bits/basic_string.h ****       {
 240:/usr/include/c++/13/bits/basic_string.h **** #if __cplusplus >= 201103L
 241:/usr/include/c++/13/bits/basic_string.h **** 	return std::pointer_traits<const_pointer>::pointer_to(*_M_local_buf);
 242:/usr/include/c++/13/bits/basic_string.h **** #else
 243:/usr/include/c++/13/bits/basic_string.h **** 	return const_pointer(_M_local_buf);
 244:/usr/include/c++/13/bits/basic_string.h **** #endif
GAS LISTING /tmp/cctiEWRC.s 			page 9


 245:/usr/include/c++/13/bits/basic_string.h ****       }
 246:/usr/include/c++/13/bits/basic_string.h **** 
 247:/usr/include/c++/13/bits/basic_string.h ****       _GLIBCXX20_CONSTEXPR
 248:/usr/include/c++/13/bits/basic_string.h ****       void
 249:/usr/include/c++/13/bits/basic_string.h ****       _M_capacity(size_type __capacity)
 250:/usr/include/c++/13/bits/basic_string.h ****       { _M_allocated_capacity = __capacity; }
 251:/usr/include/c++/13/bits/basic_string.h **** 
 252:/usr/include/c++/13/bits/basic_string.h ****       _GLIBCXX20_CONSTEXPR
 253:/usr/include/c++/13/bits/basic_string.h ****       void
 254:/usr/include/c++/13/bits/basic_string.h ****       _M_set_length(size_type __n)
 255:/usr/include/c++/13/bits/basic_string.h ****       {
 256:/usr/include/c++/13/bits/basic_string.h **** 	_M_length(__n);
 257:/usr/include/c++/13/bits/basic_string.h **** 	traits_type::assign(_M_data()[__n], _CharT());
 258:/usr/include/c++/13/bits/basic_string.h ****       }
 259:/usr/include/c++/13/bits/basic_string.h **** 
 260:/usr/include/c++/13/bits/basic_string.h ****       _GLIBCXX20_CONSTEXPR
 261:/usr/include/c++/13/bits/basic_string.h ****       bool
 262:/usr/include/c++/13/bits/basic_string.h ****       _M_is_local() const
 263:/usr/include/c++/13/bits/basic_string.h ****       {
 264:/usr/include/c++/13/bits/basic_string.h **** 	if (_M_data() == _M_local_data())
 265:/usr/include/c++/13/bits/basic_string.h **** 	  {
 266:/usr/include/c++/13/bits/basic_string.h **** 	    if (_M_string_length > _S_local_capacity)
 267:/usr/include/c++/13/bits/basic_string.h **** 	      __builtin_unreachable();
 268:/usr/include/c++/13/bits/basic_string.h **** 	    return true;
 269:/usr/include/c++/13/bits/basic_string.h **** 	  }
 270:/usr/include/c++/13/bits/basic_string.h **** 	return false;
 271:/usr/include/c++/13/bits/basic_string.h ****       }
 272:/usr/include/c++/13/bits/basic_string.h **** 
 273:/usr/include/c++/13/bits/basic_string.h ****       // Create & Destroy
 274:/usr/include/c++/13/bits/basic_string.h ****       _GLIBCXX20_CONSTEXPR
 275:/usr/include/c++/13/bits/basic_string.h ****       pointer
 276:/usr/include/c++/13/bits/basic_string.h ****       _M_create(size_type&, size_type);
 277:/usr/include/c++/13/bits/basic_string.h **** 
 278:/usr/include/c++/13/bits/basic_string.h ****       _GLIBCXX20_CONSTEXPR
 279:/usr/include/c++/13/bits/basic_string.h ****       void
 280:/usr/include/c++/13/bits/basic_string.h ****       _M_dispose()
 281:/usr/include/c++/13/bits/basic_string.h ****       {
 282:/usr/include/c++/13/bits/basic_string.h **** 	if (!_M_is_local())
 283:/usr/include/c++/13/bits/basic_string.h **** 	  _M_destroy(_M_allocated_capacity);
 284:/usr/include/c++/13/bits/basic_string.h ****       }
 285:/usr/include/c++/13/bits/basic_string.h **** 
 286:/usr/include/c++/13/bits/basic_string.h ****       _GLIBCXX20_CONSTEXPR
 287:/usr/include/c++/13/bits/basic_string.h ****       void
 288:/usr/include/c++/13/bits/basic_string.h ****       _M_destroy(size_type __size) throw()
 289:/usr/include/c++/13/bits/basic_string.h ****       { _Alloc_traits::deallocate(_M_get_allocator(), _M_data(), __size + 1); }
 290:/usr/include/c++/13/bits/basic_string.h **** 
 291:/usr/include/c++/13/bits/basic_string.h **** #if __cplusplus < 201103L || defined _GLIBCXX_DEFINING_STRING_INSTANTIATIONS
 292:/usr/include/c++/13/bits/basic_string.h ****       // _M_construct_aux is used to implement the 21.3.1 para 15 which
 293:/usr/include/c++/13/bits/basic_string.h ****       // requires special behaviour if _InIterator is an integral type
 294:/usr/include/c++/13/bits/basic_string.h ****       template<typename _InIterator>
 295:/usr/include/c++/13/bits/basic_string.h ****         void
 296:/usr/include/c++/13/bits/basic_string.h ****         _M_construct_aux(_InIterator __beg, _InIterator __end,
 297:/usr/include/c++/13/bits/basic_string.h **** 			 std::__false_type)
 298:/usr/include/c++/13/bits/basic_string.h **** 	{
 299:/usr/include/c++/13/bits/basic_string.h ****           typedef typename iterator_traits<_InIterator>::iterator_category _Tag;
 300:/usr/include/c++/13/bits/basic_string.h ****           _M_construct(__beg, __end, _Tag());
 301:/usr/include/c++/13/bits/basic_string.h **** 	}
GAS LISTING /tmp/cctiEWRC.s 			page 10


 302:/usr/include/c++/13/bits/basic_string.h **** 
 303:/usr/include/c++/13/bits/basic_string.h ****       // _GLIBCXX_RESOLVE_LIB_DEFECTS
 304:/usr/include/c++/13/bits/basic_string.h ****       // 438. Ambiguity in the "do the right thing" clause
 305:/usr/include/c++/13/bits/basic_string.h ****       template<typename _Integer>
 306:/usr/include/c++/13/bits/basic_string.h ****         void
 307:/usr/include/c++/13/bits/basic_string.h ****         _M_construct_aux(_Integer __beg, _Integer __end, std::__true_type)
 308:/usr/include/c++/13/bits/basic_string.h **** 	{ _M_construct_aux_2(static_cast<size_type>(__beg), __end); }
 309:/usr/include/c++/13/bits/basic_string.h **** 
 310:/usr/include/c++/13/bits/basic_string.h ****       void
 311:/usr/include/c++/13/bits/basic_string.h ****       _M_construct_aux_2(size_type __req, _CharT __c)
 312:/usr/include/c++/13/bits/basic_string.h ****       { _M_construct(__req, __c); }
 313:/usr/include/c++/13/bits/basic_string.h **** #endif
 314:/usr/include/c++/13/bits/basic_string.h **** 
 315:/usr/include/c++/13/bits/basic_string.h ****       // For Input Iterators, used in istreambuf_iterators, etc.
 316:/usr/include/c++/13/bits/basic_string.h ****       template<typename _InIterator>
 317:/usr/include/c++/13/bits/basic_string.h **** 	_GLIBCXX20_CONSTEXPR
 318:/usr/include/c++/13/bits/basic_string.h ****         void
 319:/usr/include/c++/13/bits/basic_string.h ****         _M_construct(_InIterator __beg, _InIterator __end,
 320:/usr/include/c++/13/bits/basic_string.h **** 		     std::input_iterator_tag);
 321:/usr/include/c++/13/bits/basic_string.h **** 
 322:/usr/include/c++/13/bits/basic_string.h ****       // For forward_iterators up to random_access_iterators, used for
 323:/usr/include/c++/13/bits/basic_string.h ****       // string::iterator, _CharT*, etc.
 324:/usr/include/c++/13/bits/basic_string.h ****       template<typename _FwdIterator>
 325:/usr/include/c++/13/bits/basic_string.h **** 	_GLIBCXX20_CONSTEXPR
 326:/usr/include/c++/13/bits/basic_string.h ****         void
 327:/usr/include/c++/13/bits/basic_string.h ****         _M_construct(_FwdIterator __beg, _FwdIterator __end,
 328:/usr/include/c++/13/bits/basic_string.h **** 		     std::forward_iterator_tag);
 329:/usr/include/c++/13/bits/basic_string.h **** 
 330:/usr/include/c++/13/bits/basic_string.h ****       _GLIBCXX20_CONSTEXPR
 331:/usr/include/c++/13/bits/basic_string.h ****       void
 332:/usr/include/c++/13/bits/basic_string.h ****       _M_construct(size_type __req, _CharT __c);
 333:/usr/include/c++/13/bits/basic_string.h **** 
 334:/usr/include/c++/13/bits/basic_string.h ****       _GLIBCXX20_CONSTEXPR
 335:/usr/include/c++/13/bits/basic_string.h ****       allocator_type&
 336:/usr/include/c++/13/bits/basic_string.h ****       _M_get_allocator()
 337:/usr/include/c++/13/bits/basic_string.h ****       { return _M_dataplus; }
 338:/usr/include/c++/13/bits/basic_string.h **** 
 339:/usr/include/c++/13/bits/basic_string.h ****       _GLIBCXX20_CONSTEXPR
 340:/usr/include/c++/13/bits/basic_string.h ****       const allocator_type&
 341:/usr/include/c++/13/bits/basic_string.h ****       _M_get_allocator() const
 342:/usr/include/c++/13/bits/basic_string.h ****       { return _M_dataplus; }
 343:/usr/include/c++/13/bits/basic_string.h **** 
 344:/usr/include/c++/13/bits/basic_string.h ****       // Ensure that _M_local_buf is the active member of the union.
 345:/usr/include/c++/13/bits/basic_string.h ****       __attribute__((__always_inline__))
 346:/usr/include/c++/13/bits/basic_string.h ****       _GLIBCXX14_CONSTEXPR
 347:/usr/include/c++/13/bits/basic_string.h ****       void
 348:/usr/include/c++/13/bits/basic_string.h ****       _M_init_local_buf() _GLIBCXX_NOEXCEPT
 349:/usr/include/c++/13/bits/basic_string.h ****       {
 350:/usr/include/c++/13/bits/basic_string.h **** #if __cpp_lib_is_constant_evaluated
 351:/usr/include/c++/13/bits/basic_string.h **** 	if (std::is_constant_evaluated())
 352:/usr/include/c++/13/bits/basic_string.h **** 	  for (size_type __i = 0; __i <= _S_local_capacity; ++__i)
 353:/usr/include/c++/13/bits/basic_string.h **** 	    _M_local_buf[__i] = _CharT();
 354:/usr/include/c++/13/bits/basic_string.h **** #endif
 355:/usr/include/c++/13/bits/basic_string.h ****       }
 356:/usr/include/c++/13/bits/basic_string.h **** 
 357:/usr/include/c++/13/bits/basic_string.h ****       __attribute__((__always_inline__))
 358:/usr/include/c++/13/bits/basic_string.h ****       _GLIBCXX14_CONSTEXPR
GAS LISTING /tmp/cctiEWRC.s 			page 11


 359:/usr/include/c++/13/bits/basic_string.h ****       pointer
 360:/usr/include/c++/13/bits/basic_string.h ****       _M_use_local_data() _GLIBCXX_NOEXCEPT
 361:/usr/include/c++/13/bits/basic_string.h ****       {
 362:/usr/include/c++/13/bits/basic_string.h **** #if __cpp_lib_is_constant_evaluated
 363:/usr/include/c++/13/bits/basic_string.h **** 	_M_init_local_buf();
 364:/usr/include/c++/13/bits/basic_string.h **** #endif
 365:/usr/include/c++/13/bits/basic_string.h **** 	return _M_local_data();
 366:/usr/include/c++/13/bits/basic_string.h ****       }
 367:/usr/include/c++/13/bits/basic_string.h **** 
 368:/usr/include/c++/13/bits/basic_string.h ****     private:
 369:/usr/include/c++/13/bits/basic_string.h **** 
 370:/usr/include/c++/13/bits/basic_string.h **** #ifdef _GLIBCXX_DISAMBIGUATE_REPLACE_INST
 371:/usr/include/c++/13/bits/basic_string.h ****       // The explicit instantiations in misc-inst.cc require this due to
 372:/usr/include/c++/13/bits/basic_string.h ****       // https://gcc.gnu.org/bugzilla/show_bug.cgi?id=64063
 373:/usr/include/c++/13/bits/basic_string.h ****       template<typename _Tp, bool _Requires =
 374:/usr/include/c++/13/bits/basic_string.h **** 	       !__are_same<_Tp, _CharT*>::__value
 375:/usr/include/c++/13/bits/basic_string.h **** 	       && !__are_same<_Tp, const _CharT*>::__value
 376:/usr/include/c++/13/bits/basic_string.h **** 	       && !__are_same<_Tp, iterator>::__value
 377:/usr/include/c++/13/bits/basic_string.h **** 	       && !__are_same<_Tp, const_iterator>::__value>
 378:/usr/include/c++/13/bits/basic_string.h **** 	struct __enable_if_not_native_iterator
 379:/usr/include/c++/13/bits/basic_string.h **** 	{ typedef basic_string& __type; };
 380:/usr/include/c++/13/bits/basic_string.h ****       template<typename _Tp>
 381:/usr/include/c++/13/bits/basic_string.h **** 	struct __enable_if_not_native_iterator<_Tp, false> { };
 382:/usr/include/c++/13/bits/basic_string.h **** #endif
 383:/usr/include/c++/13/bits/basic_string.h **** 
 384:/usr/include/c++/13/bits/basic_string.h ****       _GLIBCXX20_CONSTEXPR
 385:/usr/include/c++/13/bits/basic_string.h ****       size_type
 386:/usr/include/c++/13/bits/basic_string.h ****       _M_check(size_type __pos, const char* __s) const
 387:/usr/include/c++/13/bits/basic_string.h ****       {
 388:/usr/include/c++/13/bits/basic_string.h **** 	if (__pos > this->size())
 389:/usr/include/c++/13/bits/basic_string.h **** 	  __throw_out_of_range_fmt(__N("%s: __pos (which is %zu) > "
 390:/usr/include/c++/13/bits/basic_string.h **** 				       "this->size() (which is %zu)"),
 391:/usr/include/c++/13/bits/basic_string.h **** 				   __s, __pos, this->size());
 392:/usr/include/c++/13/bits/basic_string.h **** 	return __pos;
 393:/usr/include/c++/13/bits/basic_string.h ****       }
 394:/usr/include/c++/13/bits/basic_string.h **** 
 395:/usr/include/c++/13/bits/basic_string.h ****       _GLIBCXX20_CONSTEXPR
 396:/usr/include/c++/13/bits/basic_string.h ****       void
 397:/usr/include/c++/13/bits/basic_string.h ****       _M_check_length(size_type __n1, size_type __n2, const char* __s) const
 398:/usr/include/c++/13/bits/basic_string.h ****       {
 399:/usr/include/c++/13/bits/basic_string.h **** 	if (this->max_size() - (this->size() - __n1) < __n2)
 400:/usr/include/c++/13/bits/basic_string.h **** 	  __throw_length_error(__N(__s));
 401:/usr/include/c++/13/bits/basic_string.h ****       }
 402:/usr/include/c++/13/bits/basic_string.h **** 
 403:/usr/include/c++/13/bits/basic_string.h **** 
 404:/usr/include/c++/13/bits/basic_string.h ****       // NB: _M_limit doesn't check for a bad __pos value.
 405:/usr/include/c++/13/bits/basic_string.h ****       _GLIBCXX20_CONSTEXPR
 406:/usr/include/c++/13/bits/basic_string.h ****       size_type
 407:/usr/include/c++/13/bits/basic_string.h ****       _M_limit(size_type __pos, size_type __off) const _GLIBCXX_NOEXCEPT
 408:/usr/include/c++/13/bits/basic_string.h ****       {
 409:/usr/include/c++/13/bits/basic_string.h **** 	const bool __testoff =  __off < this->size() - __pos;
 410:/usr/include/c++/13/bits/basic_string.h **** 	return __testoff ? __off : this->size() - __pos;
 411:/usr/include/c++/13/bits/basic_string.h ****       }
 412:/usr/include/c++/13/bits/basic_string.h **** 
 413:/usr/include/c++/13/bits/basic_string.h ****       // True if _Rep and source do not overlap.
 414:/usr/include/c++/13/bits/basic_string.h ****       bool
 415:/usr/include/c++/13/bits/basic_string.h ****       _M_disjunct(const _CharT* __s) const _GLIBCXX_NOEXCEPT
GAS LISTING /tmp/cctiEWRC.s 			page 12


 416:/usr/include/c++/13/bits/basic_string.h ****       {
 417:/usr/include/c++/13/bits/basic_string.h **** 	return (less<const _CharT*>()(__s, _M_data())
 418:/usr/include/c++/13/bits/basic_string.h **** 		|| less<const _CharT*>()(_M_data() + this->size(), __s));
 419:/usr/include/c++/13/bits/basic_string.h ****       }
 420:/usr/include/c++/13/bits/basic_string.h **** 
 421:/usr/include/c++/13/bits/basic_string.h ****       // When __n = 1 way faster than the general multichar
 422:/usr/include/c++/13/bits/basic_string.h ****       // traits_type::copy/move/assign.
 423:/usr/include/c++/13/bits/basic_string.h ****       _GLIBCXX20_CONSTEXPR
 424:/usr/include/c++/13/bits/basic_string.h ****       static void
 425:/usr/include/c++/13/bits/basic_string.h ****       _S_copy(_CharT* __d, const _CharT* __s, size_type __n)
 426:/usr/include/c++/13/bits/basic_string.h ****       {
 427:/usr/include/c++/13/bits/basic_string.h **** 	if (__n == 1)
 428:/usr/include/c++/13/bits/basic_string.h **** 	  traits_type::assign(*__d, *__s);
 429:/usr/include/c++/13/bits/basic_string.h **** 	else
 430:/usr/include/c++/13/bits/basic_string.h **** 	  traits_type::copy(__d, __s, __n);
 431:/usr/include/c++/13/bits/basic_string.h ****       }
 432:/usr/include/c++/13/bits/basic_string.h **** 
 433:/usr/include/c++/13/bits/basic_string.h ****       _GLIBCXX20_CONSTEXPR
 434:/usr/include/c++/13/bits/basic_string.h ****       static void
 435:/usr/include/c++/13/bits/basic_string.h ****       _S_move(_CharT* __d, const _CharT* __s, size_type __n)
 436:/usr/include/c++/13/bits/basic_string.h ****       {
 437:/usr/include/c++/13/bits/basic_string.h **** 	if (__n == 1)
 438:/usr/include/c++/13/bits/basic_string.h **** 	  traits_type::assign(*__d, *__s);
 439:/usr/include/c++/13/bits/basic_string.h **** 	else
 440:/usr/include/c++/13/bits/basic_string.h **** 	  traits_type::move(__d, __s, __n);
 441:/usr/include/c++/13/bits/basic_string.h ****       }
 442:/usr/include/c++/13/bits/basic_string.h **** 
 443:/usr/include/c++/13/bits/basic_string.h ****       _GLIBCXX20_CONSTEXPR
 444:/usr/include/c++/13/bits/basic_string.h ****       static void
 445:/usr/include/c++/13/bits/basic_string.h ****       _S_assign(_CharT* __d, size_type __n, _CharT __c)
 446:/usr/include/c++/13/bits/basic_string.h ****       {
 447:/usr/include/c++/13/bits/basic_string.h **** 	if (__n == 1)
 448:/usr/include/c++/13/bits/basic_string.h **** 	  traits_type::assign(*__d, __c);
 449:/usr/include/c++/13/bits/basic_string.h **** 	else
 450:/usr/include/c++/13/bits/basic_string.h **** 	  traits_type::assign(__d, __n, __c);
 451:/usr/include/c++/13/bits/basic_string.h ****       }
 452:/usr/include/c++/13/bits/basic_string.h **** 
 453:/usr/include/c++/13/bits/basic_string.h ****       // _S_copy_chars is a separate template to permit specialization
 454:/usr/include/c++/13/bits/basic_string.h ****       // to optimize for the common case of pointers as iterators.
 455:/usr/include/c++/13/bits/basic_string.h ****       template<class _Iterator>
 456:/usr/include/c++/13/bits/basic_string.h **** 	_GLIBCXX20_CONSTEXPR
 457:/usr/include/c++/13/bits/basic_string.h ****         static void
 458:/usr/include/c++/13/bits/basic_string.h ****         _S_copy_chars(_CharT* __p, _Iterator __k1, _Iterator __k2)
 459:/usr/include/c++/13/bits/basic_string.h ****         {
 460:/usr/include/c++/13/bits/basic_string.h **** 	  for (; __k1 != __k2; ++__k1, (void)++__p)
 461:/usr/include/c++/13/bits/basic_string.h **** 	    traits_type::assign(*__p, *__k1); // These types are off.
 462:/usr/include/c++/13/bits/basic_string.h **** 	}
 463:/usr/include/c++/13/bits/basic_string.h **** 
 464:/usr/include/c++/13/bits/basic_string.h ****       _GLIBCXX20_CONSTEXPR
 465:/usr/include/c++/13/bits/basic_string.h ****       static void
 466:/usr/include/c++/13/bits/basic_string.h ****       _S_copy_chars(_CharT* __p, iterator __k1, iterator __k2) _GLIBCXX_NOEXCEPT
 467:/usr/include/c++/13/bits/basic_string.h ****       { _S_copy_chars(__p, __k1.base(), __k2.base()); }
 468:/usr/include/c++/13/bits/basic_string.h **** 
 469:/usr/include/c++/13/bits/basic_string.h ****       _GLIBCXX20_CONSTEXPR
 470:/usr/include/c++/13/bits/basic_string.h ****       static void
 471:/usr/include/c++/13/bits/basic_string.h ****       _S_copy_chars(_CharT* __p, const_iterator __k1, const_iterator __k2)
 472:/usr/include/c++/13/bits/basic_string.h ****       _GLIBCXX_NOEXCEPT
GAS LISTING /tmp/cctiEWRC.s 			page 13


 473:/usr/include/c++/13/bits/basic_string.h ****       { _S_copy_chars(__p, __k1.base(), __k2.base()); }
 474:/usr/include/c++/13/bits/basic_string.h **** 
 475:/usr/include/c++/13/bits/basic_string.h ****       _GLIBCXX20_CONSTEXPR
 476:/usr/include/c++/13/bits/basic_string.h ****       static void
 477:/usr/include/c++/13/bits/basic_string.h ****       _S_copy_chars(_CharT* __p, _CharT* __k1, _CharT* __k2) _GLIBCXX_NOEXCEPT
 478:/usr/include/c++/13/bits/basic_string.h ****       { _S_copy(__p, __k1, __k2 - __k1); }
 479:/usr/include/c++/13/bits/basic_string.h **** 
 480:/usr/include/c++/13/bits/basic_string.h ****       _GLIBCXX20_CONSTEXPR
 481:/usr/include/c++/13/bits/basic_string.h ****       static void
 482:/usr/include/c++/13/bits/basic_string.h ****       _S_copy_chars(_CharT* __p, const _CharT* __k1, const _CharT* __k2)
 483:/usr/include/c++/13/bits/basic_string.h ****       _GLIBCXX_NOEXCEPT
 484:/usr/include/c++/13/bits/basic_string.h ****       { _S_copy(__p, __k1, __k2 - __k1); }
 485:/usr/include/c++/13/bits/basic_string.h **** 
 486:/usr/include/c++/13/bits/basic_string.h ****       _GLIBCXX20_CONSTEXPR
 487:/usr/include/c++/13/bits/basic_string.h ****       static int
 488:/usr/include/c++/13/bits/basic_string.h ****       _S_compare(size_type __n1, size_type __n2) _GLIBCXX_NOEXCEPT
 489:/usr/include/c++/13/bits/basic_string.h ****       {
 490:/usr/include/c++/13/bits/basic_string.h **** 	const difference_type __d = difference_type(__n1 - __n2);
 491:/usr/include/c++/13/bits/basic_string.h **** 
 492:/usr/include/c++/13/bits/basic_string.h **** 	if (__d > __gnu_cxx::__numeric_traits<int>::__max)
 493:/usr/include/c++/13/bits/basic_string.h **** 	  return __gnu_cxx::__numeric_traits<int>::__max;
 494:/usr/include/c++/13/bits/basic_string.h **** 	else if (__d < __gnu_cxx::__numeric_traits<int>::__min)
 495:/usr/include/c++/13/bits/basic_string.h **** 	  return __gnu_cxx::__numeric_traits<int>::__min;
 496:/usr/include/c++/13/bits/basic_string.h **** 	else
 497:/usr/include/c++/13/bits/basic_string.h **** 	  return int(__d);
 498:/usr/include/c++/13/bits/basic_string.h ****       }
 499:/usr/include/c++/13/bits/basic_string.h **** 
 500:/usr/include/c++/13/bits/basic_string.h ****       _GLIBCXX20_CONSTEXPR
 501:/usr/include/c++/13/bits/basic_string.h ****       void
 502:/usr/include/c++/13/bits/basic_string.h ****       _M_assign(const basic_string&);
 503:/usr/include/c++/13/bits/basic_string.h **** 
 504:/usr/include/c++/13/bits/basic_string.h ****       _GLIBCXX20_CONSTEXPR
 505:/usr/include/c++/13/bits/basic_string.h ****       void
 506:/usr/include/c++/13/bits/basic_string.h ****       _M_mutate(size_type __pos, size_type __len1, const _CharT* __s,
 507:/usr/include/c++/13/bits/basic_string.h **** 		size_type __len2);
 508:/usr/include/c++/13/bits/basic_string.h **** 
 509:/usr/include/c++/13/bits/basic_string.h ****       _GLIBCXX20_CONSTEXPR
 510:/usr/include/c++/13/bits/basic_string.h ****       void
 511:/usr/include/c++/13/bits/basic_string.h ****       _M_erase(size_type __pos, size_type __n);
 512:/usr/include/c++/13/bits/basic_string.h **** 
 513:/usr/include/c++/13/bits/basic_string.h ****     public:
 514:/usr/include/c++/13/bits/basic_string.h ****       // Construct/copy/destroy:
 515:/usr/include/c++/13/bits/basic_string.h ****       // NB: We overload ctors in some cases instead of using default
 516:/usr/include/c++/13/bits/basic_string.h ****       // arguments, per 17.4.4.4 para. 2 item 2.
 517:/usr/include/c++/13/bits/basic_string.h **** 
 518:/usr/include/c++/13/bits/basic_string.h ****       /**
 519:/usr/include/c++/13/bits/basic_string.h ****        *  @brief  Default constructor creates an empty string.
 520:/usr/include/c++/13/bits/basic_string.h ****        */
 521:/usr/include/c++/13/bits/basic_string.h ****       _GLIBCXX20_CONSTEXPR
 522:/usr/include/c++/13/bits/basic_string.h ****       basic_string()
 523:/usr/include/c++/13/bits/basic_string.h ****       _GLIBCXX_NOEXCEPT_IF(is_nothrow_default_constructible<_Alloc>::value)
 524:/usr/include/c++/13/bits/basic_string.h ****       : _M_dataplus(_M_local_data())
 525:/usr/include/c++/13/bits/basic_string.h ****       {
 526:/usr/include/c++/13/bits/basic_string.h **** 	_M_init_local_buf();
 527:/usr/include/c++/13/bits/basic_string.h **** 	_M_set_length(0);
 528:/usr/include/c++/13/bits/basic_string.h ****       }
 529:/usr/include/c++/13/bits/basic_string.h **** 
GAS LISTING /tmp/cctiEWRC.s 			page 14


 530:/usr/include/c++/13/bits/basic_string.h ****       /**
 531:/usr/include/c++/13/bits/basic_string.h ****        *  @brief  Construct an empty string using allocator @a a.
 532:/usr/include/c++/13/bits/basic_string.h ****        */
 533:/usr/include/c++/13/bits/basic_string.h ****       _GLIBCXX20_CONSTEXPR
 534:/usr/include/c++/13/bits/basic_string.h ****       explicit
 535:/usr/include/c++/13/bits/basic_string.h ****       basic_string(const _Alloc& __a) _GLIBCXX_NOEXCEPT
 536:/usr/include/c++/13/bits/basic_string.h ****       : _M_dataplus(_M_local_data(), __a)
 537:/usr/include/c++/13/bits/basic_string.h ****       {
 538:/usr/include/c++/13/bits/basic_string.h **** 	_M_init_local_buf();
 539:/usr/include/c++/13/bits/basic_string.h **** 	_M_set_length(0);
 540:/usr/include/c++/13/bits/basic_string.h ****       }
 541:/usr/include/c++/13/bits/basic_string.h **** 
 542:/usr/include/c++/13/bits/basic_string.h ****       /**
 543:/usr/include/c++/13/bits/basic_string.h ****        *  @brief  Construct string with copy of value of @a __str.
 544:/usr/include/c++/13/bits/basic_string.h ****        *  @param  __str  Source string.
 545:/usr/include/c++/13/bits/basic_string.h ****        */
 546:/usr/include/c++/13/bits/basic_string.h ****       _GLIBCXX20_CONSTEXPR
 547:/usr/include/c++/13/bits/basic_string.h ****       basic_string(const basic_string& __str)
 548:/usr/include/c++/13/bits/basic_string.h ****       : _M_dataplus(_M_local_data(),
 549:/usr/include/c++/13/bits/basic_string.h **** 		    _Alloc_traits::_S_select_on_copy(__str._M_get_allocator()))
 550:/usr/include/c++/13/bits/basic_string.h ****       {
 551:/usr/include/c++/13/bits/basic_string.h **** 	_M_construct(__str._M_data(), __str._M_data() + __str.length(),
 552:/usr/include/c++/13/bits/basic_string.h **** 		     std::forward_iterator_tag());
 553:/usr/include/c++/13/bits/basic_string.h ****       }
 554:/usr/include/c++/13/bits/basic_string.h **** 
 555:/usr/include/c++/13/bits/basic_string.h ****       // _GLIBCXX_RESOLVE_LIB_DEFECTS
 556:/usr/include/c++/13/bits/basic_string.h ****       // 2583. no way to supply an allocator for basic_string(str, pos)
 557:/usr/include/c++/13/bits/basic_string.h ****       /**
 558:/usr/include/c++/13/bits/basic_string.h ****        *  @brief  Construct string as copy of a substring.
 559:/usr/include/c++/13/bits/basic_string.h ****        *  @param  __str  Source string.
 560:/usr/include/c++/13/bits/basic_string.h ****        *  @param  __pos  Index of first character to copy from.
 561:/usr/include/c++/13/bits/basic_string.h ****        *  @param  __a  Allocator to use.
 562:/usr/include/c++/13/bits/basic_string.h ****        */
 563:/usr/include/c++/13/bits/basic_string.h ****       _GLIBCXX20_CONSTEXPR
 564:/usr/include/c++/13/bits/basic_string.h ****       basic_string(const basic_string& __str, size_type __pos,
 565:/usr/include/c++/13/bits/basic_string.h **** 		   const _Alloc& __a = _Alloc())
 566:/usr/include/c++/13/bits/basic_string.h ****       : _M_dataplus(_M_local_data(), __a)
 567:/usr/include/c++/13/bits/basic_string.h ****       {
 568:/usr/include/c++/13/bits/basic_string.h **** 	const _CharT* __start = __str._M_data()
 569:/usr/include/c++/13/bits/basic_string.h **** 	  + __str._M_check(__pos, "basic_string::basic_string");
 570:/usr/include/c++/13/bits/basic_string.h **** 	_M_construct(__start, __start + __str._M_limit(__pos, npos),
 571:/usr/include/c++/13/bits/basic_string.h **** 		     std::forward_iterator_tag());
 572:/usr/include/c++/13/bits/basic_string.h ****       }
 573:/usr/include/c++/13/bits/basic_string.h **** 
 574:/usr/include/c++/13/bits/basic_string.h ****       /**
 575:/usr/include/c++/13/bits/basic_string.h ****        *  @brief  Construct string as copy of a substring.
 576:/usr/include/c++/13/bits/basic_string.h ****        *  @param  __str  Source string.
 577:/usr/include/c++/13/bits/basic_string.h ****        *  @param  __pos  Index of first character to copy from.
 578:/usr/include/c++/13/bits/basic_string.h ****        *  @param  __n  Number of characters to copy.
 579:/usr/include/c++/13/bits/basic_string.h ****        */
 580:/usr/include/c++/13/bits/basic_string.h ****       _GLIBCXX20_CONSTEXPR
 581:/usr/include/c++/13/bits/basic_string.h ****       basic_string(const basic_string& __str, size_type __pos,
 582:/usr/include/c++/13/bits/basic_string.h **** 		   size_type __n)
 583:/usr/include/c++/13/bits/basic_string.h ****       : _M_dataplus(_M_local_data())
 584:/usr/include/c++/13/bits/basic_string.h ****       {
 585:/usr/include/c++/13/bits/basic_string.h **** 	const _CharT* __start = __str._M_data()
 586:/usr/include/c++/13/bits/basic_string.h **** 	  + __str._M_check(__pos, "basic_string::basic_string");
GAS LISTING /tmp/cctiEWRC.s 			page 15


 587:/usr/include/c++/13/bits/basic_string.h **** 	_M_construct(__start, __start + __str._M_limit(__pos, __n),
 588:/usr/include/c++/13/bits/basic_string.h **** 		     std::forward_iterator_tag());
 589:/usr/include/c++/13/bits/basic_string.h ****       }
 590:/usr/include/c++/13/bits/basic_string.h **** 
 591:/usr/include/c++/13/bits/basic_string.h ****       /**
 592:/usr/include/c++/13/bits/basic_string.h ****        *  @brief  Construct string as copy of a substring.
 593:/usr/include/c++/13/bits/basic_string.h ****        *  @param  __str  Source string.
 594:/usr/include/c++/13/bits/basic_string.h ****        *  @param  __pos  Index of first character to copy from.
 595:/usr/include/c++/13/bits/basic_string.h ****        *  @param  __n  Number of characters to copy.
 596:/usr/include/c++/13/bits/basic_string.h ****        *  @param  __a  Allocator to use.
 597:/usr/include/c++/13/bits/basic_string.h ****        */
 598:/usr/include/c++/13/bits/basic_string.h ****       _GLIBCXX20_CONSTEXPR
 599:/usr/include/c++/13/bits/basic_string.h ****       basic_string(const basic_string& __str, size_type __pos,
 600:/usr/include/c++/13/bits/basic_string.h **** 		   size_type __n, const _Alloc& __a)
 601:/usr/include/c++/13/bits/basic_string.h ****       : _M_dataplus(_M_local_data(), __a)
 602:/usr/include/c++/13/bits/basic_string.h ****       {
 603:/usr/include/c++/13/bits/basic_string.h **** 	const _CharT* __start
 604:/usr/include/c++/13/bits/basic_string.h **** 	  = __str._M_data() + __str._M_check(__pos, "string::string");
 605:/usr/include/c++/13/bits/basic_string.h **** 	_M_construct(__start, __start + __str._M_limit(__pos, __n),
 606:/usr/include/c++/13/bits/basic_string.h **** 		     std::forward_iterator_tag());
 607:/usr/include/c++/13/bits/basic_string.h ****       }
 608:/usr/include/c++/13/bits/basic_string.h **** 
 609:/usr/include/c++/13/bits/basic_string.h ****       /**
 610:/usr/include/c++/13/bits/basic_string.h ****        *  @brief  Construct string initialized by a character %array.
 611:/usr/include/c++/13/bits/basic_string.h ****        *  @param  __s  Source character %array.
 612:/usr/include/c++/13/bits/basic_string.h ****        *  @param  __n  Number of characters to copy.
 613:/usr/include/c++/13/bits/basic_string.h ****        *  @param  __a  Allocator to use (default is default allocator).
 614:/usr/include/c++/13/bits/basic_string.h ****        *
 615:/usr/include/c++/13/bits/basic_string.h ****        *  NB: @a __s must have at least @a __n characters, &apos;\\0&apos;
 616:/usr/include/c++/13/bits/basic_string.h ****        *  has no special meaning.
 617:/usr/include/c++/13/bits/basic_string.h ****        */
 618:/usr/include/c++/13/bits/basic_string.h ****       _GLIBCXX20_CONSTEXPR
 619:/usr/include/c++/13/bits/basic_string.h ****       basic_string(const _CharT* __s, size_type __n,
 620:/usr/include/c++/13/bits/basic_string.h **** 		   const _Alloc& __a = _Alloc())
 621:/usr/include/c++/13/bits/basic_string.h ****       : _M_dataplus(_M_local_data(), __a)
 622:/usr/include/c++/13/bits/basic_string.h ****       {
 623:/usr/include/c++/13/bits/basic_string.h **** 	// NB: Not required, but considered best practice.
 624:/usr/include/c++/13/bits/basic_string.h **** 	if (__s == 0 && __n > 0)
 625:/usr/include/c++/13/bits/basic_string.h **** 	  std::__throw_logic_error(__N("basic_string: "
 626:/usr/include/c++/13/bits/basic_string.h **** 				       "construction from null is not valid"));
 627:/usr/include/c++/13/bits/basic_string.h **** 	_M_construct(__s, __s + __n, std::forward_iterator_tag());
 628:/usr/include/c++/13/bits/basic_string.h ****       }
 629:/usr/include/c++/13/bits/basic_string.h **** 
 630:/usr/include/c++/13/bits/basic_string.h ****       /**
 631:/usr/include/c++/13/bits/basic_string.h ****        *  @brief  Construct string as copy of a C string.
 632:/usr/include/c++/13/bits/basic_string.h ****        *  @param  __s  Source C string.
 633:/usr/include/c++/13/bits/basic_string.h ****        *  @param  __a  Allocator to use (default is default allocator).
 634:/usr/include/c++/13/bits/basic_string.h ****        */
 635:/usr/include/c++/13/bits/basic_string.h **** #if __cpp_deduction_guides && ! defined _GLIBCXX_DEFINING_STRING_INSTANTIATIONS
 636:/usr/include/c++/13/bits/basic_string.h ****       // _GLIBCXX_RESOLVE_LIB_DEFECTS
 637:/usr/include/c++/13/bits/basic_string.h ****       // 3076. basic_string CTAD ambiguity
 638:/usr/include/c++/13/bits/basic_string.h ****       template<typename = _RequireAllocator<_Alloc>>
 639:/usr/include/c++/13/bits/basic_string.h **** #endif
 640:/usr/include/c++/13/bits/basic_string.h ****       _GLIBCXX20_CONSTEXPR
 641:/usr/include/c++/13/bits/basic_string.h ****       basic_string(const _CharT* __s, const _Alloc& __a = _Alloc())
 109              		.loc 3 641 7 is_stmt 1 view -0
 110              		.cfi_startproc
GAS LISTING /tmp/cctiEWRC.s 			page 16


 111              		.loc 3 641 7 is_stmt 0 view .LVU15
 112 0000 4154     		pushq	%r12
 113              		.cfi_def_cfa_offset 16
 114              		.cfi_offset 12, -16
 115 0002 55       		pushq	%rbp
 116              		.cfi_def_cfa_offset 24
 117              		.cfi_offset 6, -24
 118 0003 53       		pushq	%rbx
 119              		.cfi_def_cfa_offset 32
 120              		.cfi_offset 3, -32
 121 0004 4883EC10 		subq	$16, %rsp
 122              		.cfi_def_cfa_offset 48
 123              		.loc 3 641 7 view .LVU16
 124 0008 64488B04 		movq	%fs:40, %rax
 124      25280000 
 124      00
 125 0011 48894424 		movq	%rax, 8(%rsp)
 125      08
 126 0016 31C0     		xorl	%eax, %eax
 127              	.LVL5:
 128              	.LBB408:
 129              	.LBI408:
 227:/usr/include/c++/13/bits/basic_string.h ****       {
 130              		.loc 3 227 7 is_stmt 1 view .LVU17
 227:/usr/include/c++/13/bits/basic_string.h ****       {
 131              		.loc 3 227 7 is_stmt 0 view .LVU18
 132              	.LBE408:
 133              	.LBB410:
 134              	.LBI410:
 188:/usr/include/c++/13/bits/basic_string.h **** 	: allocator_type(__a), _M_p(__dat) { }
 135              		.loc 3 188 2 is_stmt 1 view .LVU19
 136              	.LBB411:
 137              	.LBB412:
 138              	.LBI412:
 139              		.file 4 "/usr/include/c++/13/bits/allocator.h"
   1:/usr/include/c++/13/bits/allocator.h **** // Allocators -*- C++ -*-
   2:/usr/include/c++/13/bits/allocator.h **** 
   3:/usr/include/c++/13/bits/allocator.h **** // Copyright (C) 2001-2023 Free Software Foundation, Inc.
   4:/usr/include/c++/13/bits/allocator.h **** //
   5:/usr/include/c++/13/bits/allocator.h **** // This file is part of the GNU ISO C++ Library.  This library is free
   6:/usr/include/c++/13/bits/allocator.h **** // software; you can redistribute it and/or modify it under the
   7:/usr/include/c++/13/bits/allocator.h **** // terms of the GNU General Public License as published by the
   8:/usr/include/c++/13/bits/allocator.h **** // Free Software Foundation; either version 3, or (at your option)
   9:/usr/include/c++/13/bits/allocator.h **** // any later version.
  10:/usr/include/c++/13/bits/allocator.h **** 
  11:/usr/include/c++/13/bits/allocator.h **** // This library is distributed in the hope that it will be useful,
  12:/usr/include/c++/13/bits/allocator.h **** // but WITHOUT ANY WARRANTY; without even the implied warranty of
  13:/usr/include/c++/13/bits/allocator.h **** // MERCHANTABILITY or FITNESS FOR A PARTICULAR PURPOSE.  See the
  14:/usr/include/c++/13/bits/allocator.h **** // GNU General Public License for more details.
  15:/usr/include/c++/13/bits/allocator.h **** 
  16:/usr/include/c++/13/bits/allocator.h **** // Under Section 7 of GPL version 3, you are granted additional
  17:/usr/include/c++/13/bits/allocator.h **** // permissions described in the GCC Runtime Library Exception, version
  18:/usr/include/c++/13/bits/allocator.h **** // 3.1, as published by the Free Software Foundation.
  19:/usr/include/c++/13/bits/allocator.h **** 
  20:/usr/include/c++/13/bits/allocator.h **** // You should have received a copy of the GNU General Public License and
  21:/usr/include/c++/13/bits/allocator.h **** // a copy of the GCC Runtime Library Exception along with this program;
  22:/usr/include/c++/13/bits/allocator.h **** // see the files COPYING3 and COPYING.RUNTIME respectively.  If not, see
GAS LISTING /tmp/cctiEWRC.s 			page 17


  23:/usr/include/c++/13/bits/allocator.h **** // <http://www.gnu.org/licenses/>.
  24:/usr/include/c++/13/bits/allocator.h **** 
  25:/usr/include/c++/13/bits/allocator.h **** /*
  26:/usr/include/c++/13/bits/allocator.h ****  * Copyright (c) 1996-1997
  27:/usr/include/c++/13/bits/allocator.h ****  * Silicon Graphics Computer Systems, Inc.
  28:/usr/include/c++/13/bits/allocator.h ****  *
  29:/usr/include/c++/13/bits/allocator.h ****  * Permission to use, copy, modify, distribute and sell this software
  30:/usr/include/c++/13/bits/allocator.h ****  * and its documentation for any purpose is hereby granted without fee,
  31:/usr/include/c++/13/bits/allocator.h ****  * provided that the above copyright notice appear in all copies and
  32:/usr/include/c++/13/bits/allocator.h ****  * that both that copyright notice and this permission notice appear
  33:/usr/include/c++/13/bits/allocator.h ****  * in supporting documentation.  Silicon Graphics makes no
  34:/usr/include/c++/13/bits/allocator.h ****  * representations about the suitability of this software for any
  35:/usr/include/c++/13/bits/allocator.h ****  * purpose.  It is provided "as is" without express or implied warranty.
  36:/usr/include/c++/13/bits/allocator.h ****  */
  37:/usr/include/c++/13/bits/allocator.h **** 
  38:/usr/include/c++/13/bits/allocator.h **** /** @file bits/allocator.h
  39:/usr/include/c++/13/bits/allocator.h ****  *  This is an internal header file, included by other library headers.
  40:/usr/include/c++/13/bits/allocator.h ****  *  Do not attempt to use it directly. @headername{memory}
  41:/usr/include/c++/13/bits/allocator.h ****  */
  42:/usr/include/c++/13/bits/allocator.h **** 
  43:/usr/include/c++/13/bits/allocator.h **** #ifndef _ALLOCATOR_H
  44:/usr/include/c++/13/bits/allocator.h **** #define _ALLOCATOR_H 1
  45:/usr/include/c++/13/bits/allocator.h **** 
  46:/usr/include/c++/13/bits/allocator.h **** #include <bits/c++allocator.h> // Define the base class to std::allocator.
  47:/usr/include/c++/13/bits/allocator.h **** #include <bits/memoryfwd.h>
  48:/usr/include/c++/13/bits/allocator.h **** #if __cplusplus >= 201103L
  49:/usr/include/c++/13/bits/allocator.h **** #include <type_traits>
  50:/usr/include/c++/13/bits/allocator.h **** #endif
  51:/usr/include/c++/13/bits/allocator.h **** 
  52:/usr/include/c++/13/bits/allocator.h **** #define __cpp_lib_incomplete_container_elements 201505L
  53:/usr/include/c++/13/bits/allocator.h **** 
  54:/usr/include/c++/13/bits/allocator.h **** namespace std _GLIBCXX_VISIBILITY(default)
  55:/usr/include/c++/13/bits/allocator.h **** {
  56:/usr/include/c++/13/bits/allocator.h **** _GLIBCXX_BEGIN_NAMESPACE_VERSION
  57:/usr/include/c++/13/bits/allocator.h **** 
  58:/usr/include/c++/13/bits/allocator.h ****   /**
  59:/usr/include/c++/13/bits/allocator.h ****    *  @addtogroup allocators
  60:/usr/include/c++/13/bits/allocator.h ****    *  @{
  61:/usr/include/c++/13/bits/allocator.h ****    */
  62:/usr/include/c++/13/bits/allocator.h **** 
  63:/usr/include/c++/13/bits/allocator.h ****   // Since C++20 the primary template should be used for allocator<void>,
  64:/usr/include/c++/13/bits/allocator.h ****   // but then it would have a non-trivial default ctor and dtor for C++20,
  65:/usr/include/c++/13/bits/allocator.h ****   // but trivial for C++98-17, which would be an ABI incompatibility between
  66:/usr/include/c++/13/bits/allocator.h ****   // different standard dialects. So C++20 still uses the allocator<void>
  67:/usr/include/c++/13/bits/allocator.h ****   // explicit specialization, with the historical ABI properties, but with
  68:/usr/include/c++/13/bits/allocator.h ****   // the same members that are present in the primary template.
  69:/usr/include/c++/13/bits/allocator.h **** 
  70:/usr/include/c++/13/bits/allocator.h ****   /** std::allocator<void> specialization.
  71:/usr/include/c++/13/bits/allocator.h ****    *
  72:/usr/include/c++/13/bits/allocator.h ****    * @headerfile memory
  73:/usr/include/c++/13/bits/allocator.h ****    */
  74:/usr/include/c++/13/bits/allocator.h ****   template<>
  75:/usr/include/c++/13/bits/allocator.h ****     class allocator<void>
  76:/usr/include/c++/13/bits/allocator.h ****     {
  77:/usr/include/c++/13/bits/allocator.h ****     public:
  78:/usr/include/c++/13/bits/allocator.h ****       typedef void        value_type;
  79:/usr/include/c++/13/bits/allocator.h ****       typedef size_t      size_type;
GAS LISTING /tmp/cctiEWRC.s 			page 18


  80:/usr/include/c++/13/bits/allocator.h ****       typedef ptrdiff_t   difference_type;
  81:/usr/include/c++/13/bits/allocator.h **** 
  82:/usr/include/c++/13/bits/allocator.h **** #if __cplusplus <= 201703L
  83:/usr/include/c++/13/bits/allocator.h ****       // These were removed for C++20, allocator_traits does the right thing.
  84:/usr/include/c++/13/bits/allocator.h ****       typedef void*       pointer;
  85:/usr/include/c++/13/bits/allocator.h ****       typedef const void* const_pointer;
  86:/usr/include/c++/13/bits/allocator.h **** 
  87:/usr/include/c++/13/bits/allocator.h ****       template<typename _Tp1>
  88:/usr/include/c++/13/bits/allocator.h **** 	struct rebind
  89:/usr/include/c++/13/bits/allocator.h **** 	{ typedef allocator<_Tp1> other; };
  90:/usr/include/c++/13/bits/allocator.h **** #endif
  91:/usr/include/c++/13/bits/allocator.h **** 
  92:/usr/include/c++/13/bits/allocator.h **** #if __cplusplus >= 201103L
  93:/usr/include/c++/13/bits/allocator.h ****       // _GLIBCXX_RESOLVE_LIB_DEFECTS
  94:/usr/include/c++/13/bits/allocator.h ****       // 2103. std::allocator propagate_on_container_move_assignment
  95:/usr/include/c++/13/bits/allocator.h ****       using propagate_on_container_move_assignment = true_type;
  96:/usr/include/c++/13/bits/allocator.h **** 
  97:/usr/include/c++/13/bits/allocator.h ****       using is_always_equal
  98:/usr/include/c++/13/bits/allocator.h **** 	_GLIBCXX20_DEPRECATED_SUGGEST("std::allocator_traits::is_always_equal")
  99:/usr/include/c++/13/bits/allocator.h **** 	= true_type;
 100:/usr/include/c++/13/bits/allocator.h **** 
 101:/usr/include/c++/13/bits/allocator.h **** #if __cplusplus >= 202002L
 102:/usr/include/c++/13/bits/allocator.h ****       // As noted above, these members are present for C++20 to provide the
 103:/usr/include/c++/13/bits/allocator.h ****       // same API as the primary template, but still trivial as in pre-C++20.
 104:/usr/include/c++/13/bits/allocator.h ****       allocator() = default;
 105:/usr/include/c++/13/bits/allocator.h ****       ~allocator() = default;
 106:/usr/include/c++/13/bits/allocator.h **** 
 107:/usr/include/c++/13/bits/allocator.h ****       template<typename _Up>
 108:/usr/include/c++/13/bits/allocator.h **** 	__attribute__((__always_inline__))
 109:/usr/include/c++/13/bits/allocator.h **** 	constexpr
 110:/usr/include/c++/13/bits/allocator.h **** 	allocator(const allocator<_Up>&) noexcept { }
 111:/usr/include/c++/13/bits/allocator.h **** 
 112:/usr/include/c++/13/bits/allocator.h ****       // No allocate member because it's ill-formed by LWG 3307.
 113:/usr/include/c++/13/bits/allocator.h ****       // No deallocate member because it would be undefined to call it
 114:/usr/include/c++/13/bits/allocator.h ****       // with any pointer which wasn't obtained from allocate.
 115:/usr/include/c++/13/bits/allocator.h **** #endif // C++20
 116:/usr/include/c++/13/bits/allocator.h **** #endif // C++11
 117:/usr/include/c++/13/bits/allocator.h ****     };
 118:/usr/include/c++/13/bits/allocator.h **** 
 119:/usr/include/c++/13/bits/allocator.h ****   /**
 120:/usr/include/c++/13/bits/allocator.h ****    * @brief  The @a standard allocator, as per C++03 [20.4.1].
 121:/usr/include/c++/13/bits/allocator.h ****    *
 122:/usr/include/c++/13/bits/allocator.h ****    *  See https://gcc.gnu.org/onlinedocs/libstdc++/manual/memory.html#std.util.memory.allocator
 123:/usr/include/c++/13/bits/allocator.h ****    *  for further details.
 124:/usr/include/c++/13/bits/allocator.h ****    *
 125:/usr/include/c++/13/bits/allocator.h ****    *  @tparam  _Tp  Type of allocated object.
 126:/usr/include/c++/13/bits/allocator.h ****    *
 127:/usr/include/c++/13/bits/allocator.h ****    *  @headerfile memory
 128:/usr/include/c++/13/bits/allocator.h ****    */
 129:/usr/include/c++/13/bits/allocator.h ****   template<typename _Tp>
 130:/usr/include/c++/13/bits/allocator.h ****     class allocator : public __allocator_base<_Tp>
 131:/usr/include/c++/13/bits/allocator.h ****     {
 132:/usr/include/c++/13/bits/allocator.h ****     public:
 133:/usr/include/c++/13/bits/allocator.h ****       typedef _Tp        value_type;
 134:/usr/include/c++/13/bits/allocator.h ****       typedef size_t     size_type;
 135:/usr/include/c++/13/bits/allocator.h ****       typedef ptrdiff_t  difference_type;
 136:/usr/include/c++/13/bits/allocator.h **** 
GAS LISTING /tmp/cctiEWRC.s 			page 19


 137:/usr/include/c++/13/bits/allocator.h **** #if __cplusplus <= 201703L
 138:/usr/include/c++/13/bits/allocator.h ****       // These were removed for C++20.
 139:/usr/include/c++/13/bits/allocator.h ****       typedef _Tp*       pointer;
 140:/usr/include/c++/13/bits/allocator.h ****       typedef const _Tp* const_pointer;
 141:/usr/include/c++/13/bits/allocator.h ****       typedef _Tp&       reference;
 142:/usr/include/c++/13/bits/allocator.h ****       typedef const _Tp& const_reference;
 143:/usr/include/c++/13/bits/allocator.h **** 
 144:/usr/include/c++/13/bits/allocator.h ****       template<typename _Tp1>
 145:/usr/include/c++/13/bits/allocator.h **** 	struct rebind
 146:/usr/include/c++/13/bits/allocator.h **** 	{ typedef allocator<_Tp1> other; };
 147:/usr/include/c++/13/bits/allocator.h **** #endif
 148:/usr/include/c++/13/bits/allocator.h **** 
 149:/usr/include/c++/13/bits/allocator.h **** #if __cplusplus >= 201103L
 150:/usr/include/c++/13/bits/allocator.h ****       // _GLIBCXX_RESOLVE_LIB_DEFECTS
 151:/usr/include/c++/13/bits/allocator.h ****       // 2103. std::allocator propagate_on_container_move_assignment
 152:/usr/include/c++/13/bits/allocator.h ****       using propagate_on_container_move_assignment = true_type;
 153:/usr/include/c++/13/bits/allocator.h **** 
 154:/usr/include/c++/13/bits/allocator.h ****       using is_always_equal
 155:/usr/include/c++/13/bits/allocator.h **** 	_GLIBCXX20_DEPRECATED_SUGGEST("std::allocator_traits::is_always_equal")
 156:/usr/include/c++/13/bits/allocator.h **** 	= true_type;
 157:/usr/include/c++/13/bits/allocator.h **** #endif
 158:/usr/include/c++/13/bits/allocator.h **** 
 159:/usr/include/c++/13/bits/allocator.h ****       // _GLIBCXX_RESOLVE_LIB_DEFECTS
 160:/usr/include/c++/13/bits/allocator.h ****       // 3035. std::allocator's constructors should be constexpr
 161:/usr/include/c++/13/bits/allocator.h ****       __attribute__((__always_inline__))
 162:/usr/include/c++/13/bits/allocator.h ****       _GLIBCXX20_CONSTEXPR
 163:/usr/include/c++/13/bits/allocator.h ****       allocator() _GLIBCXX_NOTHROW { }
 164:/usr/include/c++/13/bits/allocator.h **** 
 165:/usr/include/c++/13/bits/allocator.h ****       __attribute__((__always_inline__))
 166:/usr/include/c++/13/bits/allocator.h ****       _GLIBCXX20_CONSTEXPR
 167:/usr/include/c++/13/bits/allocator.h ****       allocator(const allocator& __a) _GLIBCXX_NOTHROW
 140              		.loc 4 167 7 view .LVU20
 141              	.LBB413:
 142              	.LBI413:
 143              		.file 5 "/usr/include/c++/13/bits/new_allocator.h"
   1:/usr/include/c++/13/bits/new_allocator.h **** // Allocator that wraps operator new -*- C++ -*-
   2:/usr/include/c++/13/bits/new_allocator.h **** 
   3:/usr/include/c++/13/bits/new_allocator.h **** // Copyright (C) 2001-2023 Free Software Foundation, Inc.
   4:/usr/include/c++/13/bits/new_allocator.h **** //
   5:/usr/include/c++/13/bits/new_allocator.h **** // This file is part of the GNU ISO C++ Library.  This library is free
   6:/usr/include/c++/13/bits/new_allocator.h **** // software; you can redistribute it and/or modify it under the
   7:/usr/include/c++/13/bits/new_allocator.h **** // terms of the GNU General Public License as published by the
   8:/usr/include/c++/13/bits/new_allocator.h **** // Free Software Foundation; either version 3, or (at your option)
   9:/usr/include/c++/13/bits/new_allocator.h **** // any later version.
  10:/usr/include/c++/13/bits/new_allocator.h **** 
  11:/usr/include/c++/13/bits/new_allocator.h **** // This library is distributed in the hope that it will be useful,
  12:/usr/include/c++/13/bits/new_allocator.h **** // but WITHOUT ANY WARRANTY; without even the implied warranty of
  13:/usr/include/c++/13/bits/new_allocator.h **** // MERCHANTABILITY or FITNESS FOR A PARTICULAR PURPOSE.  See the
  14:/usr/include/c++/13/bits/new_allocator.h **** // GNU General Public License for more details.
  15:/usr/include/c++/13/bits/new_allocator.h **** 
  16:/usr/include/c++/13/bits/new_allocator.h **** // Under Section 7 of GPL version 3, you are granted additional
  17:/usr/include/c++/13/bits/new_allocator.h **** // permissions described in the GCC Runtime Library Exception, version
  18:/usr/include/c++/13/bits/new_allocator.h **** // 3.1, as published by the Free Software Foundation.
  19:/usr/include/c++/13/bits/new_allocator.h **** 
  20:/usr/include/c++/13/bits/new_allocator.h **** // You should have received a copy of the GNU General Public License and
  21:/usr/include/c++/13/bits/new_allocator.h **** // a copy of the GCC Runtime Library Exception along with this program;
  22:/usr/include/c++/13/bits/new_allocator.h **** // see the files COPYING3 and COPYING.RUNTIME respectively.  If not, see
GAS LISTING /tmp/cctiEWRC.s 			page 20


  23:/usr/include/c++/13/bits/new_allocator.h **** // <http://www.gnu.org/licenses/>.
  24:/usr/include/c++/13/bits/new_allocator.h **** 
  25:/usr/include/c++/13/bits/new_allocator.h **** /** @file bits/new_allocator.h
  26:/usr/include/c++/13/bits/new_allocator.h ****  *  This is an internal header file, included by other library headers.
  27:/usr/include/c++/13/bits/new_allocator.h ****  *  Do not attempt to use it directly. @headername{memory}
  28:/usr/include/c++/13/bits/new_allocator.h ****  */
  29:/usr/include/c++/13/bits/new_allocator.h **** 
  30:/usr/include/c++/13/bits/new_allocator.h **** #ifndef _STD_NEW_ALLOCATOR_H
  31:/usr/include/c++/13/bits/new_allocator.h **** #define _STD_NEW_ALLOCATOR_H 1
  32:/usr/include/c++/13/bits/new_allocator.h **** 
  33:/usr/include/c++/13/bits/new_allocator.h **** #include <bits/c++config.h>
  34:/usr/include/c++/13/bits/new_allocator.h **** #include <new>
  35:/usr/include/c++/13/bits/new_allocator.h **** #include <bits/functexcept.h>
  36:/usr/include/c++/13/bits/new_allocator.h **** #include <bits/move.h>
  37:/usr/include/c++/13/bits/new_allocator.h **** #if __cplusplus >= 201103L
  38:/usr/include/c++/13/bits/new_allocator.h **** #include <type_traits>
  39:/usr/include/c++/13/bits/new_allocator.h **** #endif
  40:/usr/include/c++/13/bits/new_allocator.h **** 
  41:/usr/include/c++/13/bits/new_allocator.h **** namespace std _GLIBCXX_VISIBILITY(default)
  42:/usr/include/c++/13/bits/new_allocator.h **** {
  43:/usr/include/c++/13/bits/new_allocator.h **** _GLIBCXX_BEGIN_NAMESPACE_VERSION
  44:/usr/include/c++/13/bits/new_allocator.h **** 
  45:/usr/include/c++/13/bits/new_allocator.h ****   /**
  46:/usr/include/c++/13/bits/new_allocator.h ****    * @brief  An allocator that uses global `new`, as per C++03 [20.4.1].
  47:/usr/include/c++/13/bits/new_allocator.h ****    * @ingroup allocators
  48:/usr/include/c++/13/bits/new_allocator.h ****    *
  49:/usr/include/c++/13/bits/new_allocator.h ****    * This is precisely the allocator defined in the C++ Standard.
  50:/usr/include/c++/13/bits/new_allocator.h ****    *   - all allocation calls `operator new`
  51:/usr/include/c++/13/bits/new_allocator.h ****    *   - all deallocation calls `operator delete`
  52:/usr/include/c++/13/bits/new_allocator.h ****    *
  53:/usr/include/c++/13/bits/new_allocator.h ****    * This is the default base-class implementation of `std::allocator`,
  54:/usr/include/c++/13/bits/new_allocator.h ****    * and is also the base-class of the `__gnu_cxx::new_allocator` extension.
  55:/usr/include/c++/13/bits/new_allocator.h ****    * You should use either `std::allocator` or `__gnu_cxx::new_allocator`
  56:/usr/include/c++/13/bits/new_allocator.h ****    * instead of using this directly.
  57:/usr/include/c++/13/bits/new_allocator.h ****    *
  58:/usr/include/c++/13/bits/new_allocator.h ****    * @tparam  _Tp  Type of allocated object.
  59:/usr/include/c++/13/bits/new_allocator.h ****    *
  60:/usr/include/c++/13/bits/new_allocator.h ****    * @headerfile memory
  61:/usr/include/c++/13/bits/new_allocator.h ****    */
  62:/usr/include/c++/13/bits/new_allocator.h ****   template<typename _Tp>
  63:/usr/include/c++/13/bits/new_allocator.h ****     class __new_allocator
  64:/usr/include/c++/13/bits/new_allocator.h ****     {
  65:/usr/include/c++/13/bits/new_allocator.h ****     public:
  66:/usr/include/c++/13/bits/new_allocator.h ****       typedef _Tp        value_type;
  67:/usr/include/c++/13/bits/new_allocator.h ****       typedef std::size_t     size_type;
  68:/usr/include/c++/13/bits/new_allocator.h ****       typedef std::ptrdiff_t  difference_type;
  69:/usr/include/c++/13/bits/new_allocator.h **** #if __cplusplus <= 201703L
  70:/usr/include/c++/13/bits/new_allocator.h ****       typedef _Tp*       pointer;
  71:/usr/include/c++/13/bits/new_allocator.h ****       typedef const _Tp* const_pointer;
  72:/usr/include/c++/13/bits/new_allocator.h ****       typedef _Tp&       reference;
  73:/usr/include/c++/13/bits/new_allocator.h ****       typedef const _Tp& const_reference;
  74:/usr/include/c++/13/bits/new_allocator.h **** 
  75:/usr/include/c++/13/bits/new_allocator.h ****       template<typename _Tp1>
  76:/usr/include/c++/13/bits/new_allocator.h **** 	struct rebind
  77:/usr/include/c++/13/bits/new_allocator.h **** 	{ typedef __new_allocator<_Tp1> other; };
  78:/usr/include/c++/13/bits/new_allocator.h **** #endif
  79:/usr/include/c++/13/bits/new_allocator.h **** 
GAS LISTING /tmp/cctiEWRC.s 			page 21


  80:/usr/include/c++/13/bits/new_allocator.h **** #if __cplusplus >= 201103L
  81:/usr/include/c++/13/bits/new_allocator.h ****       // _GLIBCXX_RESOLVE_LIB_DEFECTS
  82:/usr/include/c++/13/bits/new_allocator.h ****       // 2103. propagate_on_container_move_assignment
  83:/usr/include/c++/13/bits/new_allocator.h ****       typedef std::true_type propagate_on_container_move_assignment;
  84:/usr/include/c++/13/bits/new_allocator.h **** #endif
  85:/usr/include/c++/13/bits/new_allocator.h **** 
  86:/usr/include/c++/13/bits/new_allocator.h ****       __attribute__((__always_inline__))
  87:/usr/include/c++/13/bits/new_allocator.h ****       _GLIBCXX20_CONSTEXPR
  88:/usr/include/c++/13/bits/new_allocator.h ****       __new_allocator() _GLIBCXX_USE_NOEXCEPT { }
  89:/usr/include/c++/13/bits/new_allocator.h **** 
  90:/usr/include/c++/13/bits/new_allocator.h ****       __attribute__((__always_inline__))
  91:/usr/include/c++/13/bits/new_allocator.h ****       _GLIBCXX20_CONSTEXPR
  92:/usr/include/c++/13/bits/new_allocator.h ****       __new_allocator(const __new_allocator&) _GLIBCXX_USE_NOEXCEPT { }
 144              		.loc 5 92 7 view .LVU21
 145              		.loc 5 92 7 is_stmt 0 view .LVU22
 146              	.LBE413:
 147              	.LBE412:
 148              	.LBE411:
 149              	.LBE410:
 150              	.LBB414:
 151              	.LBB409:
 230:/usr/include/c++/13/bits/basic_string.h **** #else
 152              		.loc 3 230 51 view .LVU23
 153 0018 488D4710 		leaq	16(%rdi), %rax
 154 001c 488907   		movq	%rax, (%rdi)
 155              	.LVL6:
 230:/usr/include/c++/13/bits/basic_string.h **** #else
 156              		.loc 3 230 51 view .LVU24
 157              	.LBE409:
 158              	.LBE414:
 159              	.LBB415:
 642:/usr/include/c++/13/bits/basic_string.h ****       : _M_dataplus(_M_local_data(), __a)
 643:/usr/include/c++/13/bits/basic_string.h ****       {
 644:/usr/include/c++/13/bits/basic_string.h **** 	// NB: Not required, but considered best practice.
 645:/usr/include/c++/13/bits/basic_string.h **** 	if (__s == 0)
 160              		.loc 3 645 2 view .LVU25
 161 001f 4885F6   		testq	%rsi, %rsi
 162 0022 751C     		jne	.L7
 163              	.LBE415:
 164              	.LBB451:
 165              	.LBI451:
 641:/usr/include/c++/13/bits/basic_string.h ****       : _M_dataplus(_M_local_data(), __a)
 166              		.loc 3 641 7 is_stmt 1 view .LVU26
 167              	.LVL7:
 168              	.LBB452:
 646:/usr/include/c++/13/bits/basic_string.h **** 	  std::__throw_logic_error(__N("basic_string: "
 169              		.loc 3 646 28 is_stmt 0 view .LVU27
 170 0024 488B4424 		movq	8(%rsp), %rax
 170      08
 171 0029 64482B04 		subq	%fs:40, %rax
 171      25280000 
 171      00
 172 0032 757F     		jne	.L17
 173 0034 488D3D00 		leaq	.LC0(%rip), %rdi
 173      000000
 174              	.LVL8:
 175              		.loc 3 646 28 view .LVU28
GAS LISTING /tmp/cctiEWRC.s 			page 22


 176 003b E8000000 		call	_ZSt19__throw_logic_errorPKc@PLT
 176      00
 177              	.LVL9:
 178              	.L7:
 179              		.loc 3 646 28 view .LVU29
 180 0040 4889FB   		movq	%rdi, %rbx
 181              	.LBE452:
 182              	.LBE451:
 183              	.LBB453:
 184              	.LBB416:
 185              	.LBB417:
 186              		.file 6 "/usr/include/c++/13/bits/char_traits.h"
   1:/usr/include/c++/13/bits/char_traits.h **** // Character Traits for use by standard string and iostream -*- C++ -*-
   2:/usr/include/c++/13/bits/char_traits.h **** 
   3:/usr/include/c++/13/bits/char_traits.h **** // Copyright (C) 1997-2023 Free Software Foundation, Inc.
   4:/usr/include/c++/13/bits/char_traits.h **** //
   5:/usr/include/c++/13/bits/char_traits.h **** // This file is part of the GNU ISO C++ Library.  This library is free
   6:/usr/include/c++/13/bits/char_traits.h **** // software; you can redistribute it and/or modify it under the
   7:/usr/include/c++/13/bits/char_traits.h **** // terms of the GNU General Public License as published by the
   8:/usr/include/c++/13/bits/char_traits.h **** // Free Software Foundation; either version 3, or (at your option)
   9:/usr/include/c++/13/bits/char_traits.h **** // any later version.
  10:/usr/include/c++/13/bits/char_traits.h **** 
  11:/usr/include/c++/13/bits/char_traits.h **** // This library is distributed in the hope that it will be useful,
  12:/usr/include/c++/13/bits/char_traits.h **** // but WITHOUT ANY WARRANTY; without even the implied warranty of
  13:/usr/include/c++/13/bits/char_traits.h **** // MERCHANTABILITY or FITNESS FOR A PARTICULAR PURPOSE.  See the
  14:/usr/include/c++/13/bits/char_traits.h **** // GNU General Public License for more details.
  15:/usr/include/c++/13/bits/char_traits.h **** 
  16:/usr/include/c++/13/bits/char_traits.h **** // Under Section 7 of GPL version 3, you are granted additional
  17:/usr/include/c++/13/bits/char_traits.h **** // permissions described in the GCC Runtime Library Exception, version
  18:/usr/include/c++/13/bits/char_traits.h **** // 3.1, as published by the Free Software Foundation.
  19:/usr/include/c++/13/bits/char_traits.h **** 
  20:/usr/include/c++/13/bits/char_traits.h **** // You should have received a copy of the GNU General Public License and
  21:/usr/include/c++/13/bits/char_traits.h **** // a copy of the GCC Runtime Library Exception along with this program;
  22:/usr/include/c++/13/bits/char_traits.h **** // see the files COPYING3 and COPYING.RUNTIME respectively.  If not, see
  23:/usr/include/c++/13/bits/char_traits.h **** // <http://www.gnu.org/licenses/>.
  24:/usr/include/c++/13/bits/char_traits.h **** 
  25:/usr/include/c++/13/bits/char_traits.h **** /** @file bits/char_traits.h
  26:/usr/include/c++/13/bits/char_traits.h ****  *  This is an internal header file, included by other library headers.
  27:/usr/include/c++/13/bits/char_traits.h ****  *  Do not attempt to use it directly. @headername{string}
  28:/usr/include/c++/13/bits/char_traits.h ****  */
  29:/usr/include/c++/13/bits/char_traits.h **** 
  30:/usr/include/c++/13/bits/char_traits.h **** //
  31:/usr/include/c++/13/bits/char_traits.h **** // ISO C++ 14882: 21  Strings library
  32:/usr/include/c++/13/bits/char_traits.h **** //
  33:/usr/include/c++/13/bits/char_traits.h **** 
  34:/usr/include/c++/13/bits/char_traits.h **** #ifndef _CHAR_TRAITS_H
  35:/usr/include/c++/13/bits/char_traits.h **** #define _CHAR_TRAITS_H 1
  36:/usr/include/c++/13/bits/char_traits.h **** 
  37:/usr/include/c++/13/bits/char_traits.h **** #pragma GCC system_header
  38:/usr/include/c++/13/bits/char_traits.h **** 
  39:/usr/include/c++/13/bits/char_traits.h **** #include <bits/c++config.h>
  40:/usr/include/c++/13/bits/char_traits.h **** 
  41:/usr/include/c++/13/bits/char_traits.h **** #if _GLIBCXX_HOSTED
  42:/usr/include/c++/13/bits/char_traits.h **** # include <bits/postypes.h>     // For streampos
  43:/usr/include/c++/13/bits/char_traits.h **** #endif // HOSTED
  44:/usr/include/c++/13/bits/char_traits.h **** 
  45:/usr/include/c++/13/bits/char_traits.h **** #ifdef _GLIBCXX_USE_WCHAR_T
GAS LISTING /tmp/cctiEWRC.s 			page 23


  46:/usr/include/c++/13/bits/char_traits.h **** # include <cwchar>              // For WEOF, wmemmove, wmemset, etc.
  47:/usr/include/c++/13/bits/char_traits.h **** #endif // USE_WCHAR_T
  48:/usr/include/c++/13/bits/char_traits.h **** 
  49:/usr/include/c++/13/bits/char_traits.h **** #if __cplusplus >= 201103L
  50:/usr/include/c++/13/bits/char_traits.h **** # include <type_traits>
  51:/usr/include/c++/13/bits/char_traits.h **** #if !defined __UINT_LEAST16_TYPE__ || !defined __UINT_LEAST32_TYPE__
  52:/usr/include/c++/13/bits/char_traits.h **** # include <cstdint>
  53:/usr/include/c++/13/bits/char_traits.h **** #endif
  54:/usr/include/c++/13/bits/char_traits.h **** #endif
  55:/usr/include/c++/13/bits/char_traits.h **** #if __cplusplus >= 202002L
  56:/usr/include/c++/13/bits/char_traits.h **** # include <compare>
  57:/usr/include/c++/13/bits/char_traits.h **** # include <bits/stl_construct.h>
  58:/usr/include/c++/13/bits/char_traits.h **** #endif
  59:/usr/include/c++/13/bits/char_traits.h **** 
  60:/usr/include/c++/13/bits/char_traits.h **** #ifndef _GLIBCXX_ALWAYS_INLINE
  61:/usr/include/c++/13/bits/char_traits.h **** # define _GLIBCXX_ALWAYS_INLINE inline __attribute__((__always_inline__))
  62:/usr/include/c++/13/bits/char_traits.h **** #endif
  63:/usr/include/c++/13/bits/char_traits.h **** 
  64:/usr/include/c++/13/bits/char_traits.h **** namespace __gnu_cxx _GLIBCXX_VISIBILITY(default)
  65:/usr/include/c++/13/bits/char_traits.h **** {
  66:/usr/include/c++/13/bits/char_traits.h **** _GLIBCXX_BEGIN_NAMESPACE_VERSION
  67:/usr/include/c++/13/bits/char_traits.h **** 
  68:/usr/include/c++/13/bits/char_traits.h **** #pragma GCC diagnostic push
  69:/usr/include/c++/13/bits/char_traits.h **** #pragma GCC diagnostic ignored "-Wstringop-overflow"
  70:/usr/include/c++/13/bits/char_traits.h **** #pragma GCC diagnostic ignored "-Wstringop-overread"
  71:/usr/include/c++/13/bits/char_traits.h **** #pragma GCC diagnostic ignored "-Warray-bounds"
  72:/usr/include/c++/13/bits/char_traits.h **** 
  73:/usr/include/c++/13/bits/char_traits.h ****   /**
  74:/usr/include/c++/13/bits/char_traits.h ****    *  @brief  Mapping from character type to associated types.
  75:/usr/include/c++/13/bits/char_traits.h ****    *
  76:/usr/include/c++/13/bits/char_traits.h ****    *  @note This is an implementation class for the generic version
  77:/usr/include/c++/13/bits/char_traits.h ****    *  of char_traits.  It defines int_type, off_type, pos_type, and
  78:/usr/include/c++/13/bits/char_traits.h ****    *  state_type.  By default these are unsigned long, streamoff,
  79:/usr/include/c++/13/bits/char_traits.h ****    *  streampos, and mbstate_t.  Users who need a different set of
  80:/usr/include/c++/13/bits/char_traits.h ****    *  types, but who don't need to change the definitions of any function
  81:/usr/include/c++/13/bits/char_traits.h ****    *  defined in char_traits, can specialize __gnu_cxx::_Char_types
  82:/usr/include/c++/13/bits/char_traits.h ****    *  while leaving __gnu_cxx::char_traits alone. */
  83:/usr/include/c++/13/bits/char_traits.h ****   template<typename _CharT>
  84:/usr/include/c++/13/bits/char_traits.h ****     struct _Char_types
  85:/usr/include/c++/13/bits/char_traits.h ****     {
  86:/usr/include/c++/13/bits/char_traits.h ****       typedef unsigned long   int_type;
  87:/usr/include/c++/13/bits/char_traits.h **** #if _GLIBCXX_HOSTED
  88:/usr/include/c++/13/bits/char_traits.h ****       typedef std::streampos  pos_type;
  89:/usr/include/c++/13/bits/char_traits.h ****       typedef std::streamoff  off_type;
  90:/usr/include/c++/13/bits/char_traits.h ****       typedef std::mbstate_t  state_type;
  91:/usr/include/c++/13/bits/char_traits.h **** #endif // HOSTED
  92:/usr/include/c++/13/bits/char_traits.h ****     };
  93:/usr/include/c++/13/bits/char_traits.h **** 
  94:/usr/include/c++/13/bits/char_traits.h **** 
  95:/usr/include/c++/13/bits/char_traits.h ****   /**
  96:/usr/include/c++/13/bits/char_traits.h ****    *  @brief  Base class used to implement std::char_traits.
  97:/usr/include/c++/13/bits/char_traits.h ****    *
  98:/usr/include/c++/13/bits/char_traits.h ****    *  @note For any given actual character type, this definition is
  99:/usr/include/c++/13/bits/char_traits.h ****    *  probably wrong.  (Most of the member functions are likely to be
 100:/usr/include/c++/13/bits/char_traits.h ****    *  right, but the int_type and state_type typedefs, and the eof()
 101:/usr/include/c++/13/bits/char_traits.h ****    *  member function, are likely to be wrong.)  The reason this class
 102:/usr/include/c++/13/bits/char_traits.h ****    *  exists is so users can specialize it.  Classes in namespace std
GAS LISTING /tmp/cctiEWRC.s 			page 24


 103:/usr/include/c++/13/bits/char_traits.h ****    *  may not be specialized for fundamental types, but classes in
 104:/usr/include/c++/13/bits/char_traits.h ****    *  namespace __gnu_cxx may be.
 105:/usr/include/c++/13/bits/char_traits.h ****    *
 106:/usr/include/c++/13/bits/char_traits.h ****    *  See https://gcc.gnu.org/onlinedocs/libstdc++/manual/strings.html#strings.string.character_typ
 107:/usr/include/c++/13/bits/char_traits.h ****    *  for advice on how to make use of this class for @a unusual character
 108:/usr/include/c++/13/bits/char_traits.h ****    *  types. Also, check out include/ext/pod_char_traits.h.  
 109:/usr/include/c++/13/bits/char_traits.h ****    */
 110:/usr/include/c++/13/bits/char_traits.h ****   template<typename _CharT>
 111:/usr/include/c++/13/bits/char_traits.h ****     struct char_traits
 112:/usr/include/c++/13/bits/char_traits.h ****     {
 113:/usr/include/c++/13/bits/char_traits.h ****       typedef _CharT                                    char_type;
 114:/usr/include/c++/13/bits/char_traits.h ****       typedef typename _Char_types<_CharT>::int_type    int_type;
 115:/usr/include/c++/13/bits/char_traits.h **** #if _GLIBCXX_HOSTED
 116:/usr/include/c++/13/bits/char_traits.h ****       typedef typename _Char_types<_CharT>::pos_type    pos_type;
 117:/usr/include/c++/13/bits/char_traits.h ****       typedef typename _Char_types<_CharT>::off_type    off_type;
 118:/usr/include/c++/13/bits/char_traits.h ****       typedef typename _Char_types<_CharT>::state_type  state_type;
 119:/usr/include/c++/13/bits/char_traits.h **** #endif // HOSTED
 120:/usr/include/c++/13/bits/char_traits.h **** #if __cpp_lib_three_way_comparison
 121:/usr/include/c++/13/bits/char_traits.h ****       using comparison_category = std::strong_ordering;
 122:/usr/include/c++/13/bits/char_traits.h **** #endif
 123:/usr/include/c++/13/bits/char_traits.h **** 
 124:/usr/include/c++/13/bits/char_traits.h ****       static _GLIBCXX14_CONSTEXPR void
 125:/usr/include/c++/13/bits/char_traits.h ****       assign(char_type& __c1, const char_type& __c2)
 126:/usr/include/c++/13/bits/char_traits.h ****       {
 127:/usr/include/c++/13/bits/char_traits.h **** #if __cpp_constexpr_dynamic_alloc
 128:/usr/include/c++/13/bits/char_traits.h **** 	if (std::__is_constant_evaluated())
 129:/usr/include/c++/13/bits/char_traits.h **** 	  std::construct_at(__builtin_addressof(__c1), __c2);
 130:/usr/include/c++/13/bits/char_traits.h **** 	else
 131:/usr/include/c++/13/bits/char_traits.h **** #endif
 132:/usr/include/c++/13/bits/char_traits.h **** 	__c1 = __c2;
 133:/usr/include/c++/13/bits/char_traits.h ****       }
 134:/usr/include/c++/13/bits/char_traits.h **** 
 135:/usr/include/c++/13/bits/char_traits.h ****       static _GLIBCXX_CONSTEXPR bool
 136:/usr/include/c++/13/bits/char_traits.h ****       eq(const char_type& __c1, const char_type& __c2)
 137:/usr/include/c++/13/bits/char_traits.h ****       { return __c1 == __c2; }
 138:/usr/include/c++/13/bits/char_traits.h **** 
 139:/usr/include/c++/13/bits/char_traits.h ****       static _GLIBCXX_CONSTEXPR bool
 140:/usr/include/c++/13/bits/char_traits.h ****       lt(const char_type& __c1, const char_type& __c2)
 141:/usr/include/c++/13/bits/char_traits.h ****       { return __c1 < __c2; }
 142:/usr/include/c++/13/bits/char_traits.h **** 
 143:/usr/include/c++/13/bits/char_traits.h ****       static _GLIBCXX14_CONSTEXPR int
 144:/usr/include/c++/13/bits/char_traits.h ****       compare(const char_type* __s1, const char_type* __s2, std::size_t __n);
 145:/usr/include/c++/13/bits/char_traits.h **** 
 146:/usr/include/c++/13/bits/char_traits.h ****       static _GLIBCXX14_CONSTEXPR std::size_t
 147:/usr/include/c++/13/bits/char_traits.h ****       length(const char_type* __s);
 148:/usr/include/c++/13/bits/char_traits.h **** 
 149:/usr/include/c++/13/bits/char_traits.h ****       static _GLIBCXX14_CONSTEXPR const char_type*
 150:/usr/include/c++/13/bits/char_traits.h ****       find(const char_type* __s, std::size_t __n, const char_type& __a);
 151:/usr/include/c++/13/bits/char_traits.h **** 
 152:/usr/include/c++/13/bits/char_traits.h ****       static _GLIBCXX20_CONSTEXPR char_type*
 153:/usr/include/c++/13/bits/char_traits.h ****       move(char_type* __s1, const char_type* __s2, std::size_t __n);
 154:/usr/include/c++/13/bits/char_traits.h **** 
 155:/usr/include/c++/13/bits/char_traits.h ****       static _GLIBCXX20_CONSTEXPR char_type*
 156:/usr/include/c++/13/bits/char_traits.h ****       copy(char_type* __s1, const char_type* __s2, std::size_t __n);
 157:/usr/include/c++/13/bits/char_traits.h **** 
 158:/usr/include/c++/13/bits/char_traits.h ****       static _GLIBCXX20_CONSTEXPR char_type*
 159:/usr/include/c++/13/bits/char_traits.h ****       assign(char_type* __s, std::size_t __n, char_type __a);
GAS LISTING /tmp/cctiEWRC.s 			page 25


 160:/usr/include/c++/13/bits/char_traits.h **** 
 161:/usr/include/c++/13/bits/char_traits.h ****       static _GLIBCXX_CONSTEXPR char_type
 162:/usr/include/c++/13/bits/char_traits.h ****       to_char_type(const int_type& __c)
 163:/usr/include/c++/13/bits/char_traits.h ****       { return static_cast<char_type>(__c); }
 164:/usr/include/c++/13/bits/char_traits.h **** 
 165:/usr/include/c++/13/bits/char_traits.h ****       static _GLIBCXX_CONSTEXPR int_type
 166:/usr/include/c++/13/bits/char_traits.h ****       to_int_type(const char_type& __c)
 167:/usr/include/c++/13/bits/char_traits.h ****       { return static_cast<int_type>(__c); }
 168:/usr/include/c++/13/bits/char_traits.h **** 
 169:/usr/include/c++/13/bits/char_traits.h ****       static _GLIBCXX_CONSTEXPR bool
 170:/usr/include/c++/13/bits/char_traits.h ****       eq_int_type(const int_type& __c1, const int_type& __c2)
 171:/usr/include/c++/13/bits/char_traits.h ****       { return __c1 == __c2; }
 172:/usr/include/c++/13/bits/char_traits.h **** 
 173:/usr/include/c++/13/bits/char_traits.h **** #ifdef _GLIBCXX_STDIO_EOF
 174:/usr/include/c++/13/bits/char_traits.h ****       static _GLIBCXX_CONSTEXPR int_type
 175:/usr/include/c++/13/bits/char_traits.h ****       eof()
 176:/usr/include/c++/13/bits/char_traits.h ****       { return static_cast<int_type>(_GLIBCXX_STDIO_EOF); }
 177:/usr/include/c++/13/bits/char_traits.h **** 
 178:/usr/include/c++/13/bits/char_traits.h ****       static _GLIBCXX_CONSTEXPR int_type
 179:/usr/include/c++/13/bits/char_traits.h ****       not_eof(const int_type& __c)
 180:/usr/include/c++/13/bits/char_traits.h ****       { return !eq_int_type(__c, eof()) ? __c : to_int_type(char_type()); }
 181:/usr/include/c++/13/bits/char_traits.h **** #endif // defined(_GLIBCXX_STDIO_EOF)
 182:/usr/include/c++/13/bits/char_traits.h ****     };
 183:/usr/include/c++/13/bits/char_traits.h **** 
 184:/usr/include/c++/13/bits/char_traits.h ****   template<typename _CharT>
 185:/usr/include/c++/13/bits/char_traits.h ****     _GLIBCXX14_CONSTEXPR int
 186:/usr/include/c++/13/bits/char_traits.h ****     char_traits<_CharT>::
 187:/usr/include/c++/13/bits/char_traits.h ****     compare(const char_type* __s1, const char_type* __s2, std::size_t __n)
 188:/usr/include/c++/13/bits/char_traits.h ****     {
 189:/usr/include/c++/13/bits/char_traits.h ****       for (std::size_t __i = 0; __i < __n; ++__i)
 190:/usr/include/c++/13/bits/char_traits.h **** 	if (lt(__s1[__i], __s2[__i]))
 191:/usr/include/c++/13/bits/char_traits.h **** 	  return -1;
 192:/usr/include/c++/13/bits/char_traits.h **** 	else if (lt(__s2[__i], __s1[__i]))
 193:/usr/include/c++/13/bits/char_traits.h **** 	  return 1;
 194:/usr/include/c++/13/bits/char_traits.h ****       return 0;
 195:/usr/include/c++/13/bits/char_traits.h ****     }
 196:/usr/include/c++/13/bits/char_traits.h **** 
 197:/usr/include/c++/13/bits/char_traits.h ****   template<typename _CharT>
 198:/usr/include/c++/13/bits/char_traits.h ****     _GLIBCXX14_CONSTEXPR std::size_t
 199:/usr/include/c++/13/bits/char_traits.h ****     char_traits<_CharT>::
 200:/usr/include/c++/13/bits/char_traits.h ****     length(const char_type* __p)
 201:/usr/include/c++/13/bits/char_traits.h ****     {
 202:/usr/include/c++/13/bits/char_traits.h ****       std::size_t __i = 0;
 203:/usr/include/c++/13/bits/char_traits.h ****       while (!eq(__p[__i], char_type()))
 204:/usr/include/c++/13/bits/char_traits.h ****         ++__i;
 205:/usr/include/c++/13/bits/char_traits.h ****       return __i;
 206:/usr/include/c++/13/bits/char_traits.h ****     }
 207:/usr/include/c++/13/bits/char_traits.h **** 
 208:/usr/include/c++/13/bits/char_traits.h ****   template<typename _CharT>
 209:/usr/include/c++/13/bits/char_traits.h ****     _GLIBCXX14_CONSTEXPR const typename char_traits<_CharT>::char_type*
 210:/usr/include/c++/13/bits/char_traits.h ****     char_traits<_CharT>::
 211:/usr/include/c++/13/bits/char_traits.h ****     find(const char_type* __s, std::size_t __n, const char_type& __a)
 212:/usr/include/c++/13/bits/char_traits.h ****     {
 213:/usr/include/c++/13/bits/char_traits.h ****       for (std::size_t __i = 0; __i < __n; ++__i)
 214:/usr/include/c++/13/bits/char_traits.h ****         if (eq(__s[__i], __a))
 215:/usr/include/c++/13/bits/char_traits.h ****           return __s + __i;
 216:/usr/include/c++/13/bits/char_traits.h ****       return 0;
GAS LISTING /tmp/cctiEWRC.s 			page 26


 217:/usr/include/c++/13/bits/char_traits.h ****     }
 218:/usr/include/c++/13/bits/char_traits.h **** 
 219:/usr/include/c++/13/bits/char_traits.h ****   template<typename _CharT>
 220:/usr/include/c++/13/bits/char_traits.h ****     _GLIBCXX20_CONSTEXPR
 221:/usr/include/c++/13/bits/char_traits.h ****     typename char_traits<_CharT>::char_type*
 222:/usr/include/c++/13/bits/char_traits.h ****     char_traits<_CharT>::
 223:/usr/include/c++/13/bits/char_traits.h ****     move(char_type* __s1, const char_type* __s2, std::size_t __n)
 224:/usr/include/c++/13/bits/char_traits.h ****     {
 225:/usr/include/c++/13/bits/char_traits.h ****       if (__n == 0)
 226:/usr/include/c++/13/bits/char_traits.h **** 	return __s1;
 227:/usr/include/c++/13/bits/char_traits.h **** #if __cplusplus >= 202002L
 228:/usr/include/c++/13/bits/char_traits.h ****       if (std::__is_constant_evaluated())
 229:/usr/include/c++/13/bits/char_traits.h **** 	{
 230:/usr/include/c++/13/bits/char_traits.h **** 	  // Use __builtin_constant_p to avoid comparing unrelated pointers.
 231:/usr/include/c++/13/bits/char_traits.h **** 	  if (__builtin_constant_p(__s2 < __s1)
 232:/usr/include/c++/13/bits/char_traits.h **** 		&& __s1 > __s2 && __s1 < (__s2 + __n))
 233:/usr/include/c++/13/bits/char_traits.h **** 	    {
 234:/usr/include/c++/13/bits/char_traits.h **** 	      do
 235:/usr/include/c++/13/bits/char_traits.h **** 		{
 236:/usr/include/c++/13/bits/char_traits.h **** 		  --__n;
 237:/usr/include/c++/13/bits/char_traits.h **** 		  assign(__s1[__n], __s2[__n]);
 238:/usr/include/c++/13/bits/char_traits.h **** 		}
 239:/usr/include/c++/13/bits/char_traits.h **** 	      while (__n > 0);
 240:/usr/include/c++/13/bits/char_traits.h **** 	    }
 241:/usr/include/c++/13/bits/char_traits.h **** 	  else
 242:/usr/include/c++/13/bits/char_traits.h **** 	    copy(__s1, __s2, __n);
 243:/usr/include/c++/13/bits/char_traits.h **** 	  return __s1;
 244:/usr/include/c++/13/bits/char_traits.h **** 	}
 245:/usr/include/c++/13/bits/char_traits.h **** #endif
 246:/usr/include/c++/13/bits/char_traits.h ****       __builtin_memmove(__s1, __s2, __n * sizeof(char_type));
 247:/usr/include/c++/13/bits/char_traits.h ****       return __s1;
 248:/usr/include/c++/13/bits/char_traits.h ****     }
 249:/usr/include/c++/13/bits/char_traits.h **** 
 250:/usr/include/c++/13/bits/char_traits.h ****   template<typename _CharT>
 251:/usr/include/c++/13/bits/char_traits.h ****     _GLIBCXX20_CONSTEXPR
 252:/usr/include/c++/13/bits/char_traits.h ****     typename char_traits<_CharT>::char_type*
 253:/usr/include/c++/13/bits/char_traits.h ****     char_traits<_CharT>::
 254:/usr/include/c++/13/bits/char_traits.h ****     copy(char_type* __s1, const char_type* __s2, std::size_t __n)
 255:/usr/include/c++/13/bits/char_traits.h ****     {
 256:/usr/include/c++/13/bits/char_traits.h ****       if (__n == 0)
 257:/usr/include/c++/13/bits/char_traits.h **** 	return __s1;
 258:/usr/include/c++/13/bits/char_traits.h **** #if __cplusplus >= 202002L
 259:/usr/include/c++/13/bits/char_traits.h ****       if (std::__is_constant_evaluated())
 260:/usr/include/c++/13/bits/char_traits.h **** 	{
 261:/usr/include/c++/13/bits/char_traits.h **** 	  for (std::size_t __i = 0; __i < __n; ++__i)
 262:/usr/include/c++/13/bits/char_traits.h **** 	    std::construct_at(__s1 + __i, __s2[__i]);
 263:/usr/include/c++/13/bits/char_traits.h **** 	  return __s1;
 264:/usr/include/c++/13/bits/char_traits.h **** 	}
 265:/usr/include/c++/13/bits/char_traits.h **** #endif
 266:/usr/include/c++/13/bits/char_traits.h ****       __builtin_memcpy(__s1, __s2, __n * sizeof(char_type));
 267:/usr/include/c++/13/bits/char_traits.h ****       return __s1;
 268:/usr/include/c++/13/bits/char_traits.h ****     }
 269:/usr/include/c++/13/bits/char_traits.h **** 
 270:/usr/include/c++/13/bits/char_traits.h ****   template<typename _CharT>
 271:/usr/include/c++/13/bits/char_traits.h ****     _GLIBCXX20_CONSTEXPR
 272:/usr/include/c++/13/bits/char_traits.h ****     typename char_traits<_CharT>::char_type*
 273:/usr/include/c++/13/bits/char_traits.h ****     char_traits<_CharT>::
GAS LISTING /tmp/cctiEWRC.s 			page 27


 274:/usr/include/c++/13/bits/char_traits.h ****     assign(char_type* __s, std::size_t __n, char_type __a)
 275:/usr/include/c++/13/bits/char_traits.h ****     {
 276:/usr/include/c++/13/bits/char_traits.h **** #if __cplusplus >= 202002L
 277:/usr/include/c++/13/bits/char_traits.h ****       if (std::__is_constant_evaluated())
 278:/usr/include/c++/13/bits/char_traits.h **** 	{
 279:/usr/include/c++/13/bits/char_traits.h **** 	  for (std::size_t __i = 0; __i < __n; ++__i)
 280:/usr/include/c++/13/bits/char_traits.h **** 	    std::construct_at(__s + __i, __a);
 281:/usr/include/c++/13/bits/char_traits.h **** 	  return __s;
 282:/usr/include/c++/13/bits/char_traits.h **** 	}
 283:/usr/include/c++/13/bits/char_traits.h **** #endif
 284:/usr/include/c++/13/bits/char_traits.h **** 
 285:/usr/include/c++/13/bits/char_traits.h ****       if _GLIBCXX17_CONSTEXPR (sizeof(_CharT) == 1 && __is_trivial(_CharT))
 286:/usr/include/c++/13/bits/char_traits.h **** 	{
 287:/usr/include/c++/13/bits/char_traits.h **** 	  if (__n)
 288:/usr/include/c++/13/bits/char_traits.h **** 	    {
 289:/usr/include/c++/13/bits/char_traits.h **** 	      unsigned char __c;
 290:/usr/include/c++/13/bits/char_traits.h **** 	      __builtin_memcpy(&__c, __builtin_addressof(__a), 1);
 291:/usr/include/c++/13/bits/char_traits.h **** 	      __builtin_memset(__s, __c, __n);
 292:/usr/include/c++/13/bits/char_traits.h **** 	    }
 293:/usr/include/c++/13/bits/char_traits.h **** 	}
 294:/usr/include/c++/13/bits/char_traits.h ****       else
 295:/usr/include/c++/13/bits/char_traits.h **** 	{
 296:/usr/include/c++/13/bits/char_traits.h **** 	  for (std::size_t __i = 0; __i < __n; ++__i)
 297:/usr/include/c++/13/bits/char_traits.h **** 	    __s[__i] = __a;
 298:/usr/include/c++/13/bits/char_traits.h **** 	}
 299:/usr/include/c++/13/bits/char_traits.h ****       return __s;
 300:/usr/include/c++/13/bits/char_traits.h ****     }
 301:/usr/include/c++/13/bits/char_traits.h **** 
 302:/usr/include/c++/13/bits/char_traits.h **** _GLIBCXX_END_NAMESPACE_VERSION
 303:/usr/include/c++/13/bits/char_traits.h **** } // namespace
 304:/usr/include/c++/13/bits/char_traits.h **** 
 305:/usr/include/c++/13/bits/char_traits.h **** namespace std _GLIBCXX_VISIBILITY(default)
 306:/usr/include/c++/13/bits/char_traits.h **** {
 307:/usr/include/c++/13/bits/char_traits.h **** _GLIBCXX_BEGIN_NAMESPACE_VERSION
 308:/usr/include/c++/13/bits/char_traits.h **** 
 309:/usr/include/c++/13/bits/char_traits.h **** #ifdef __cpp_lib_is_constant_evaluated
 310:/usr/include/c++/13/bits/char_traits.h **** // Unofficial macro indicating P1032R1 support in C++20
 311:/usr/include/c++/13/bits/char_traits.h **** # define __cpp_lib_constexpr_char_traits 201811L
 312:/usr/include/c++/13/bits/char_traits.h **** #elif __cplusplus >= 201703L && _GLIBCXX_HAVE_IS_CONSTANT_EVALUATED
 313:/usr/include/c++/13/bits/char_traits.h **** // Unofficial macro indicating P0426R1 support in C++17
 314:/usr/include/c++/13/bits/char_traits.h **** # define __cpp_lib_constexpr_char_traits 201611L
 315:/usr/include/c++/13/bits/char_traits.h **** #endif
 316:/usr/include/c++/13/bits/char_traits.h **** 
 317:/usr/include/c++/13/bits/char_traits.h ****   // 21.1
 318:/usr/include/c++/13/bits/char_traits.h ****   /**
 319:/usr/include/c++/13/bits/char_traits.h ****    *  @brief  Basis for explicit traits specializations.
 320:/usr/include/c++/13/bits/char_traits.h ****    *
 321:/usr/include/c++/13/bits/char_traits.h ****    *  @note  For any given actual character type, this definition is
 322:/usr/include/c++/13/bits/char_traits.h ****    *  probably wrong.  Since this is just a thin wrapper around
 323:/usr/include/c++/13/bits/char_traits.h ****    *  __gnu_cxx::char_traits, it is possible to achieve a more
 324:/usr/include/c++/13/bits/char_traits.h ****    *  appropriate definition by specializing __gnu_cxx::char_traits.
 325:/usr/include/c++/13/bits/char_traits.h ****    *
 326:/usr/include/c++/13/bits/char_traits.h ****    *  See https://gcc.gnu.org/onlinedocs/libstdc++/manual/strings.html#strings.string.character_typ
 327:/usr/include/c++/13/bits/char_traits.h ****    *  for advice on how to make use of this class for @a unusual character
 328:/usr/include/c++/13/bits/char_traits.h ****    *  types. Also, check out include/ext/pod_char_traits.h.
 329:/usr/include/c++/13/bits/char_traits.h ****   */
 330:/usr/include/c++/13/bits/char_traits.h ****   template<typename _CharT>
GAS LISTING /tmp/cctiEWRC.s 			page 28


 331:/usr/include/c++/13/bits/char_traits.h ****     struct char_traits : public __gnu_cxx::char_traits<_CharT>
 332:/usr/include/c++/13/bits/char_traits.h ****     { };
 333:/usr/include/c++/13/bits/char_traits.h **** 
 334:/usr/include/c++/13/bits/char_traits.h **** 
 335:/usr/include/c++/13/bits/char_traits.h ****   /// 21.1.3.1  char_traits specializations
 336:/usr/include/c++/13/bits/char_traits.h ****   template<>
 337:/usr/include/c++/13/bits/char_traits.h ****     struct char_traits<char>
 338:/usr/include/c++/13/bits/char_traits.h ****     {
 339:/usr/include/c++/13/bits/char_traits.h ****       typedef char              char_type;
 340:/usr/include/c++/13/bits/char_traits.h ****       typedef int               int_type;
 341:/usr/include/c++/13/bits/char_traits.h **** #if _GLIBCXX_HOSTED
 342:/usr/include/c++/13/bits/char_traits.h ****       typedef streampos         pos_type;
 343:/usr/include/c++/13/bits/char_traits.h ****       typedef streamoff         off_type;
 344:/usr/include/c++/13/bits/char_traits.h ****       typedef mbstate_t         state_type;
 345:/usr/include/c++/13/bits/char_traits.h **** #endif // HOSTED
 346:/usr/include/c++/13/bits/char_traits.h **** #if __cpp_lib_three_way_comparison
 347:/usr/include/c++/13/bits/char_traits.h ****       using comparison_category = strong_ordering;
 348:/usr/include/c++/13/bits/char_traits.h **** #endif
 349:/usr/include/c++/13/bits/char_traits.h **** 
 350:/usr/include/c++/13/bits/char_traits.h ****       static _GLIBCXX17_CONSTEXPR void
 351:/usr/include/c++/13/bits/char_traits.h ****       assign(char_type& __c1, const char_type& __c2) _GLIBCXX_NOEXCEPT
 352:/usr/include/c++/13/bits/char_traits.h ****       {
 353:/usr/include/c++/13/bits/char_traits.h **** #if __cpp_constexpr_dynamic_alloc
 354:/usr/include/c++/13/bits/char_traits.h **** 	if (std::__is_constant_evaluated())
 355:/usr/include/c++/13/bits/char_traits.h **** 	  std::construct_at(__builtin_addressof(__c1), __c2);
 356:/usr/include/c++/13/bits/char_traits.h **** 	else
 357:/usr/include/c++/13/bits/char_traits.h **** #endif
 358:/usr/include/c++/13/bits/char_traits.h **** 	__c1 = __c2;
 359:/usr/include/c++/13/bits/char_traits.h ****       }
 360:/usr/include/c++/13/bits/char_traits.h **** 
 361:/usr/include/c++/13/bits/char_traits.h ****       static _GLIBCXX_CONSTEXPR bool
 362:/usr/include/c++/13/bits/char_traits.h ****       eq(const char_type& __c1, const char_type& __c2) _GLIBCXX_NOEXCEPT
 363:/usr/include/c++/13/bits/char_traits.h ****       { return __c1 == __c2; }
 364:/usr/include/c++/13/bits/char_traits.h **** 
 365:/usr/include/c++/13/bits/char_traits.h ****       static _GLIBCXX_CONSTEXPR bool
 366:/usr/include/c++/13/bits/char_traits.h ****       lt(const char_type& __c1, const char_type& __c2) _GLIBCXX_NOEXCEPT
 367:/usr/include/c++/13/bits/char_traits.h ****       {
 368:/usr/include/c++/13/bits/char_traits.h **** 	// LWG 467.
 369:/usr/include/c++/13/bits/char_traits.h **** 	return (static_cast<unsigned char>(__c1)
 370:/usr/include/c++/13/bits/char_traits.h **** 		< static_cast<unsigned char>(__c2));
 371:/usr/include/c++/13/bits/char_traits.h ****       }
 372:/usr/include/c++/13/bits/char_traits.h **** 
 373:/usr/include/c++/13/bits/char_traits.h ****       static _GLIBCXX17_CONSTEXPR int
 374:/usr/include/c++/13/bits/char_traits.h ****       compare(const char_type* __s1, const char_type* __s2, size_t __n)
 375:/usr/include/c++/13/bits/char_traits.h ****       {
 376:/usr/include/c++/13/bits/char_traits.h **** 	if (__n == 0)
 377:/usr/include/c++/13/bits/char_traits.h **** 	  return 0;
 378:/usr/include/c++/13/bits/char_traits.h **** #if __cplusplus >= 201703L
 379:/usr/include/c++/13/bits/char_traits.h **** 	if (std::__is_constant_evaluated())
 380:/usr/include/c++/13/bits/char_traits.h **** 	  {
 381:/usr/include/c++/13/bits/char_traits.h **** 	    for (size_t __i = 0; __i < __n; ++__i)
 382:/usr/include/c++/13/bits/char_traits.h **** 	      if (lt(__s1[__i], __s2[__i]))
 383:/usr/include/c++/13/bits/char_traits.h **** 		return -1;
 384:/usr/include/c++/13/bits/char_traits.h **** 	      else if (lt(__s2[__i], __s1[__i]))
 385:/usr/include/c++/13/bits/char_traits.h **** 		return 1;
 386:/usr/include/c++/13/bits/char_traits.h **** 	    return 0;
 387:/usr/include/c++/13/bits/char_traits.h **** 	  }
GAS LISTING /tmp/cctiEWRC.s 			page 29


 388:/usr/include/c++/13/bits/char_traits.h **** #endif
 389:/usr/include/c++/13/bits/char_traits.h **** 	return __builtin_memcmp(__s1, __s2, __n);
 390:/usr/include/c++/13/bits/char_traits.h ****       }
 391:/usr/include/c++/13/bits/char_traits.h **** 
 392:/usr/include/c++/13/bits/char_traits.h ****       static _GLIBCXX17_CONSTEXPR size_t
 393:/usr/include/c++/13/bits/char_traits.h ****       length(const char_type* __s)
 394:/usr/include/c++/13/bits/char_traits.h ****       {
 395:/usr/include/c++/13/bits/char_traits.h **** #if __cplusplus >= 201703L
 396:/usr/include/c++/13/bits/char_traits.h **** 	if (std::__is_constant_evaluated())
 397:/usr/include/c++/13/bits/char_traits.h **** 	  return __gnu_cxx::char_traits<char_type>::length(__s);
 398:/usr/include/c++/13/bits/char_traits.h **** #endif
 399:/usr/include/c++/13/bits/char_traits.h **** 	return __builtin_strlen(__s);
 187              		.loc 6 399 25 view .LVU30
 188 0043 4889F7   		movq	%rsi, %rdi
 189              	.LVL10:
 190              		.loc 6 399 25 view .LVU31
 191 0046 4989F4   		movq	%rsi, %r12
 192              	.LVL11:
 193              		.loc 6 399 25 view .LVU32
 194              	.LBE417:
 195              	.LBI416:
 393:/usr/include/c++/13/bits/char_traits.h ****       {
 196              		.loc 6 393 7 is_stmt 1 view .LVU33
 197              	.LBB418:
 198              		.loc 6 399 2 view .LVU34
 199              		.loc 6 399 25 is_stmt 0 view .LVU35
 200 0049 E8000000 		call	strlen@PLT
 200      00
 201              	.LVL12:
 202              		.loc 6 399 25 view .LVU36
 203              	.LBE418:
 204              	.LBE416:
 205              	.LBB420:
 206              	.LBB421:
 207              		.file 7 "/usr/include/c++/13/bits/basic_string.tcc"
   1:/usr/include/c++/13/bits/basic_string.tcc **** // Components for manipulating sequences of characters -*- C++ -*-
   2:/usr/include/c++/13/bits/basic_string.tcc **** 
   3:/usr/include/c++/13/bits/basic_string.tcc **** // Copyright (C) 1997-2023 Free Software Foundation, Inc.
   4:/usr/include/c++/13/bits/basic_string.tcc **** //
   5:/usr/include/c++/13/bits/basic_string.tcc **** // This file is part of the GNU ISO C++ Library.  This library is free
   6:/usr/include/c++/13/bits/basic_string.tcc **** // software; you can redistribute it and/or modify it under the
   7:/usr/include/c++/13/bits/basic_string.tcc **** // terms of the GNU General Public License as published by the
   8:/usr/include/c++/13/bits/basic_string.tcc **** // Free Software Foundation; either version 3, or (at your option)
   9:/usr/include/c++/13/bits/basic_string.tcc **** // any later version.
  10:/usr/include/c++/13/bits/basic_string.tcc **** 
  11:/usr/include/c++/13/bits/basic_string.tcc **** // This library is distributed in the hope that it will be useful,
  12:/usr/include/c++/13/bits/basic_string.tcc **** // but WITHOUT ANY WARRANTY; without even the implied warranty of
  13:/usr/include/c++/13/bits/basic_string.tcc **** // MERCHANTABILITY or FITNESS FOR A PARTICULAR PURPOSE.  See the
  14:/usr/include/c++/13/bits/basic_string.tcc **** // GNU General Public License for more details.
  15:/usr/include/c++/13/bits/basic_string.tcc **** 
  16:/usr/include/c++/13/bits/basic_string.tcc **** // Under Section 7 of GPL version 3, you are granted additional
  17:/usr/include/c++/13/bits/basic_string.tcc **** // permissions described in the GCC Runtime Library Exception, version
  18:/usr/include/c++/13/bits/basic_string.tcc **** // 3.1, as published by the Free Software Foundation.
  19:/usr/include/c++/13/bits/basic_string.tcc **** 
  20:/usr/include/c++/13/bits/basic_string.tcc **** // You should have received a copy of the GNU General Public License and
  21:/usr/include/c++/13/bits/basic_string.tcc **** // a copy of the GCC Runtime Library Exception along with this program;
  22:/usr/include/c++/13/bits/basic_string.tcc **** // see the files COPYING3 and COPYING.RUNTIME respectively.  If not, see
GAS LISTING /tmp/cctiEWRC.s 			page 30


  23:/usr/include/c++/13/bits/basic_string.tcc **** // <http://www.gnu.org/licenses/>.
  24:/usr/include/c++/13/bits/basic_string.tcc **** 
  25:/usr/include/c++/13/bits/basic_string.tcc **** /** @file bits/basic_string.tcc
  26:/usr/include/c++/13/bits/basic_string.tcc ****  *  This is an internal header file, included by other library headers.
  27:/usr/include/c++/13/bits/basic_string.tcc ****  *  Do not attempt to use it directly. @headername{string}
  28:/usr/include/c++/13/bits/basic_string.tcc ****  */
  29:/usr/include/c++/13/bits/basic_string.tcc **** 
  30:/usr/include/c++/13/bits/basic_string.tcc **** //
  31:/usr/include/c++/13/bits/basic_string.tcc **** // ISO C++ 14882: 21  Strings library
  32:/usr/include/c++/13/bits/basic_string.tcc **** //
  33:/usr/include/c++/13/bits/basic_string.tcc **** 
  34:/usr/include/c++/13/bits/basic_string.tcc **** // Written by Jason Merrill based upon the specification by Takanori Adachi
  35:/usr/include/c++/13/bits/basic_string.tcc **** // in ANSI X3J16/94-0013R2.  Rewritten by Nathan Myers to ISO-14882.
  36:/usr/include/c++/13/bits/basic_string.tcc **** // Non-reference-counted implementation written by Paolo Carlini and
  37:/usr/include/c++/13/bits/basic_string.tcc **** // updated by Jonathan Wakely for ISO-14882-2011.
  38:/usr/include/c++/13/bits/basic_string.tcc **** 
  39:/usr/include/c++/13/bits/basic_string.tcc **** #ifndef _BASIC_STRING_TCC
  40:/usr/include/c++/13/bits/basic_string.tcc **** #define _BASIC_STRING_TCC 1
  41:/usr/include/c++/13/bits/basic_string.tcc **** 
  42:/usr/include/c++/13/bits/basic_string.tcc **** #pragma GCC system_header
  43:/usr/include/c++/13/bits/basic_string.tcc **** 
  44:/usr/include/c++/13/bits/basic_string.tcc **** #include <bits/cxxabi_forced.h>
  45:/usr/include/c++/13/bits/basic_string.tcc **** 
  46:/usr/include/c++/13/bits/basic_string.tcc **** namespace std _GLIBCXX_VISIBILITY(default)
  47:/usr/include/c++/13/bits/basic_string.tcc **** {
  48:/usr/include/c++/13/bits/basic_string.tcc **** _GLIBCXX_BEGIN_NAMESPACE_VERSION
  49:/usr/include/c++/13/bits/basic_string.tcc **** 
  50:/usr/include/c++/13/bits/basic_string.tcc **** #if _GLIBCXX_USE_CXX11_ABI
  51:/usr/include/c++/13/bits/basic_string.tcc **** 
  52:/usr/include/c++/13/bits/basic_string.tcc ****   template<typename _CharT, typename _Traits, typename _Alloc>
  53:/usr/include/c++/13/bits/basic_string.tcc ****     const typename basic_string<_CharT, _Traits, _Alloc>::size_type
  54:/usr/include/c++/13/bits/basic_string.tcc ****     basic_string<_CharT, _Traits, _Alloc>::npos;
  55:/usr/include/c++/13/bits/basic_string.tcc **** 
  56:/usr/include/c++/13/bits/basic_string.tcc ****   template<typename _CharT, typename _Traits, typename _Alloc>
  57:/usr/include/c++/13/bits/basic_string.tcc ****     _GLIBCXX20_CONSTEXPR
  58:/usr/include/c++/13/bits/basic_string.tcc ****     void
  59:/usr/include/c++/13/bits/basic_string.tcc ****     basic_string<_CharT, _Traits, _Alloc>::
  60:/usr/include/c++/13/bits/basic_string.tcc ****     swap(basic_string& __s) _GLIBCXX_NOEXCEPT
  61:/usr/include/c++/13/bits/basic_string.tcc ****     {
  62:/usr/include/c++/13/bits/basic_string.tcc ****       if (this == std::__addressof(__s))
  63:/usr/include/c++/13/bits/basic_string.tcc **** 	return;
  64:/usr/include/c++/13/bits/basic_string.tcc **** 
  65:/usr/include/c++/13/bits/basic_string.tcc ****       _Alloc_traits::_S_on_swap(_M_get_allocator(), __s._M_get_allocator());
  66:/usr/include/c++/13/bits/basic_string.tcc **** 
  67:/usr/include/c++/13/bits/basic_string.tcc ****       if (_M_is_local())
  68:/usr/include/c++/13/bits/basic_string.tcc **** 	if (__s._M_is_local())
  69:/usr/include/c++/13/bits/basic_string.tcc **** 	  {
  70:/usr/include/c++/13/bits/basic_string.tcc **** 	    if (length() && __s.length())
  71:/usr/include/c++/13/bits/basic_string.tcc **** 	      {
  72:/usr/include/c++/13/bits/basic_string.tcc **** 		_CharT __tmp_data[_S_local_capacity + 1];
  73:/usr/include/c++/13/bits/basic_string.tcc **** 		traits_type::copy(__tmp_data, __s._M_local_buf,
  74:/usr/include/c++/13/bits/basic_string.tcc **** 				  __s.length() + 1);
  75:/usr/include/c++/13/bits/basic_string.tcc **** 		traits_type::copy(__s._M_local_buf, _M_local_buf,
  76:/usr/include/c++/13/bits/basic_string.tcc **** 				  length() + 1);
  77:/usr/include/c++/13/bits/basic_string.tcc **** 		traits_type::copy(_M_local_buf, __tmp_data,
  78:/usr/include/c++/13/bits/basic_string.tcc **** 				  __s.length() + 1);
  79:/usr/include/c++/13/bits/basic_string.tcc **** 	      }
GAS LISTING /tmp/cctiEWRC.s 			page 31


  80:/usr/include/c++/13/bits/basic_string.tcc **** 	    else if (__s.length())
  81:/usr/include/c++/13/bits/basic_string.tcc **** 	      {
  82:/usr/include/c++/13/bits/basic_string.tcc **** 		_M_init_local_buf();
  83:/usr/include/c++/13/bits/basic_string.tcc **** 		traits_type::copy(_M_local_buf, __s._M_local_buf,
  84:/usr/include/c++/13/bits/basic_string.tcc **** 				  __s.length() + 1);
  85:/usr/include/c++/13/bits/basic_string.tcc **** 		_M_length(__s.length());
  86:/usr/include/c++/13/bits/basic_string.tcc **** 		__s._M_set_length(0);
  87:/usr/include/c++/13/bits/basic_string.tcc **** 		return;
  88:/usr/include/c++/13/bits/basic_string.tcc **** 	      }
  89:/usr/include/c++/13/bits/basic_string.tcc **** 	    else if (length())
  90:/usr/include/c++/13/bits/basic_string.tcc **** 	      {
  91:/usr/include/c++/13/bits/basic_string.tcc **** 		__s._M_init_local_buf();
  92:/usr/include/c++/13/bits/basic_string.tcc **** 		traits_type::copy(__s._M_local_buf, _M_local_buf,
  93:/usr/include/c++/13/bits/basic_string.tcc **** 				  length() + 1);
  94:/usr/include/c++/13/bits/basic_string.tcc **** 		__s._M_length(length());
  95:/usr/include/c++/13/bits/basic_string.tcc **** 		_M_set_length(0);
  96:/usr/include/c++/13/bits/basic_string.tcc **** 		return;
  97:/usr/include/c++/13/bits/basic_string.tcc **** 	      }
  98:/usr/include/c++/13/bits/basic_string.tcc **** 	  }
  99:/usr/include/c++/13/bits/basic_string.tcc **** 	else
 100:/usr/include/c++/13/bits/basic_string.tcc **** 	  {
 101:/usr/include/c++/13/bits/basic_string.tcc **** 	    const size_type __tmp_capacity = __s._M_allocated_capacity;
 102:/usr/include/c++/13/bits/basic_string.tcc **** 	    __s._M_init_local_buf();
 103:/usr/include/c++/13/bits/basic_string.tcc **** 	    traits_type::copy(__s._M_local_buf, _M_local_buf,
 104:/usr/include/c++/13/bits/basic_string.tcc **** 			      length() + 1);
 105:/usr/include/c++/13/bits/basic_string.tcc **** 	    _M_data(__s._M_data());
 106:/usr/include/c++/13/bits/basic_string.tcc **** 	    __s._M_data(__s._M_local_buf);
 107:/usr/include/c++/13/bits/basic_string.tcc **** 	    _M_capacity(__tmp_capacity);
 108:/usr/include/c++/13/bits/basic_string.tcc **** 	  }
 109:/usr/include/c++/13/bits/basic_string.tcc ****       else
 110:/usr/include/c++/13/bits/basic_string.tcc **** 	{
 111:/usr/include/c++/13/bits/basic_string.tcc **** 	  const size_type __tmp_capacity = _M_allocated_capacity;
 112:/usr/include/c++/13/bits/basic_string.tcc **** 	  if (__s._M_is_local())
 113:/usr/include/c++/13/bits/basic_string.tcc **** 	    {
 114:/usr/include/c++/13/bits/basic_string.tcc **** 	      _M_init_local_buf();
 115:/usr/include/c++/13/bits/basic_string.tcc **** 	      traits_type::copy(_M_local_buf, __s._M_local_buf,
 116:/usr/include/c++/13/bits/basic_string.tcc **** 				__s.length() + 1);
 117:/usr/include/c++/13/bits/basic_string.tcc **** 	      __s._M_data(_M_data());
 118:/usr/include/c++/13/bits/basic_string.tcc **** 	      _M_data(_M_local_buf);
 119:/usr/include/c++/13/bits/basic_string.tcc **** 	    }
 120:/usr/include/c++/13/bits/basic_string.tcc **** 	  else
 121:/usr/include/c++/13/bits/basic_string.tcc **** 	    {
 122:/usr/include/c++/13/bits/basic_string.tcc **** 	      pointer __tmp_ptr = _M_data();
 123:/usr/include/c++/13/bits/basic_string.tcc **** 	      _M_data(__s._M_data());
 124:/usr/include/c++/13/bits/basic_string.tcc **** 	      __s._M_data(__tmp_ptr);
 125:/usr/include/c++/13/bits/basic_string.tcc **** 	      _M_capacity(__s._M_allocated_capacity);
 126:/usr/include/c++/13/bits/basic_string.tcc **** 	    }
 127:/usr/include/c++/13/bits/basic_string.tcc **** 	  __s._M_capacity(__tmp_capacity);
 128:/usr/include/c++/13/bits/basic_string.tcc **** 	}
 129:/usr/include/c++/13/bits/basic_string.tcc **** 
 130:/usr/include/c++/13/bits/basic_string.tcc ****       const size_type __tmp_length = length();
 131:/usr/include/c++/13/bits/basic_string.tcc ****       _M_length(__s.length());
 132:/usr/include/c++/13/bits/basic_string.tcc ****       __s._M_length(__tmp_length);
 133:/usr/include/c++/13/bits/basic_string.tcc ****     }
 134:/usr/include/c++/13/bits/basic_string.tcc **** 
 135:/usr/include/c++/13/bits/basic_string.tcc ****   template<typename _CharT, typename _Traits, typename _Alloc>
 136:/usr/include/c++/13/bits/basic_string.tcc ****     _GLIBCXX20_CONSTEXPR
GAS LISTING /tmp/cctiEWRC.s 			page 32


 137:/usr/include/c++/13/bits/basic_string.tcc ****     typename basic_string<_CharT, _Traits, _Alloc>::pointer
 138:/usr/include/c++/13/bits/basic_string.tcc ****     basic_string<_CharT, _Traits, _Alloc>::
 139:/usr/include/c++/13/bits/basic_string.tcc ****     _M_create(size_type& __capacity, size_type __old_capacity)
 140:/usr/include/c++/13/bits/basic_string.tcc ****     {
 141:/usr/include/c++/13/bits/basic_string.tcc ****       // _GLIBCXX_RESOLVE_LIB_DEFECTS
 142:/usr/include/c++/13/bits/basic_string.tcc ****       // 83.  String::npos vs. string::max_size()
 143:/usr/include/c++/13/bits/basic_string.tcc ****       if (__capacity > max_size())
 144:/usr/include/c++/13/bits/basic_string.tcc **** 	std::__throw_length_error(__N("basic_string::_M_create"));
 145:/usr/include/c++/13/bits/basic_string.tcc **** 
 146:/usr/include/c++/13/bits/basic_string.tcc ****       // The below implements an exponential growth policy, necessary to
 147:/usr/include/c++/13/bits/basic_string.tcc ****       // meet amortized linear time requirements of the library: see
 148:/usr/include/c++/13/bits/basic_string.tcc ****       // http://gcc.gnu.org/ml/libstdc++/2001-07/msg00085.html.
 149:/usr/include/c++/13/bits/basic_string.tcc ****       if (__capacity > __old_capacity && __capacity < 2 * __old_capacity)
 150:/usr/include/c++/13/bits/basic_string.tcc **** 	{
 151:/usr/include/c++/13/bits/basic_string.tcc **** 	  __capacity = 2 * __old_capacity;
 152:/usr/include/c++/13/bits/basic_string.tcc **** 	  // Never allocate a string bigger than max_size.
 153:/usr/include/c++/13/bits/basic_string.tcc **** 	  if (__capacity > max_size())
 154:/usr/include/c++/13/bits/basic_string.tcc **** 	    __capacity = max_size();
 155:/usr/include/c++/13/bits/basic_string.tcc **** 	}
 156:/usr/include/c++/13/bits/basic_string.tcc **** 
 157:/usr/include/c++/13/bits/basic_string.tcc ****       // NB: Need an array of char_type[__capacity], plus a terminating
 158:/usr/include/c++/13/bits/basic_string.tcc ****       // null char_type() element.
 159:/usr/include/c++/13/bits/basic_string.tcc ****       return _S_allocate(_M_get_allocator(), __capacity + 1);
 160:/usr/include/c++/13/bits/basic_string.tcc ****     }
 161:/usr/include/c++/13/bits/basic_string.tcc **** 
 162:/usr/include/c++/13/bits/basic_string.tcc ****   // NB: This is the special case for Input Iterators, used in
 163:/usr/include/c++/13/bits/basic_string.tcc ****   // istreambuf_iterators, etc.
 164:/usr/include/c++/13/bits/basic_string.tcc ****   // Input Iterators have a cost structure very different from
 165:/usr/include/c++/13/bits/basic_string.tcc ****   // pointers, calling for a different coding style.
 166:/usr/include/c++/13/bits/basic_string.tcc ****   template<typename _CharT, typename _Traits, typename _Alloc>
 167:/usr/include/c++/13/bits/basic_string.tcc ****     template<typename _InIterator>
 168:/usr/include/c++/13/bits/basic_string.tcc ****       _GLIBCXX20_CONSTEXPR
 169:/usr/include/c++/13/bits/basic_string.tcc ****       void
 170:/usr/include/c++/13/bits/basic_string.tcc ****       basic_string<_CharT, _Traits, _Alloc>::
 171:/usr/include/c++/13/bits/basic_string.tcc ****       _M_construct(_InIterator __beg, _InIterator __end,
 172:/usr/include/c++/13/bits/basic_string.tcc **** 		   std::input_iterator_tag)
 173:/usr/include/c++/13/bits/basic_string.tcc ****       {
 174:/usr/include/c++/13/bits/basic_string.tcc **** 	size_type __len = 0;
 175:/usr/include/c++/13/bits/basic_string.tcc **** 	size_type __capacity = size_type(_S_local_capacity);
 176:/usr/include/c++/13/bits/basic_string.tcc **** 
 177:/usr/include/c++/13/bits/basic_string.tcc **** 	_M_init_local_buf();
 178:/usr/include/c++/13/bits/basic_string.tcc **** 
 179:/usr/include/c++/13/bits/basic_string.tcc **** 	while (__beg != __end && __len < __capacity)
 180:/usr/include/c++/13/bits/basic_string.tcc **** 	  {
 181:/usr/include/c++/13/bits/basic_string.tcc **** 	    _M_local_buf[__len++] = *__beg;
 182:/usr/include/c++/13/bits/basic_string.tcc **** 	    ++__beg;
 183:/usr/include/c++/13/bits/basic_string.tcc **** 	  }
 184:/usr/include/c++/13/bits/basic_string.tcc **** 
 185:/usr/include/c++/13/bits/basic_string.tcc **** 	struct _Guard
 186:/usr/include/c++/13/bits/basic_string.tcc **** 	{
 187:/usr/include/c++/13/bits/basic_string.tcc **** 	  _GLIBCXX20_CONSTEXPR
 188:/usr/include/c++/13/bits/basic_string.tcc **** 	  explicit _Guard(basic_string* __s) : _M_guarded(__s) { }
 189:/usr/include/c++/13/bits/basic_string.tcc **** 
 190:/usr/include/c++/13/bits/basic_string.tcc **** 	  _GLIBCXX20_CONSTEXPR
 191:/usr/include/c++/13/bits/basic_string.tcc **** 	  ~_Guard() { if (_M_guarded) _M_guarded->_M_dispose(); }
 192:/usr/include/c++/13/bits/basic_string.tcc **** 
 193:/usr/include/c++/13/bits/basic_string.tcc **** 	  basic_string* _M_guarded;
GAS LISTING /tmp/cctiEWRC.s 			page 33


 194:/usr/include/c++/13/bits/basic_string.tcc **** 	} __guard(this);
 195:/usr/include/c++/13/bits/basic_string.tcc **** 
 196:/usr/include/c++/13/bits/basic_string.tcc **** 	while (__beg != __end)
 197:/usr/include/c++/13/bits/basic_string.tcc **** 	  {
 198:/usr/include/c++/13/bits/basic_string.tcc **** 	    if (__len == __capacity)
 199:/usr/include/c++/13/bits/basic_string.tcc **** 	      {
 200:/usr/include/c++/13/bits/basic_string.tcc **** 		// Allocate more space.
 201:/usr/include/c++/13/bits/basic_string.tcc **** 		__capacity = __len + 1;
 202:/usr/include/c++/13/bits/basic_string.tcc **** 		pointer __another = _M_create(__capacity, __len);
 203:/usr/include/c++/13/bits/basic_string.tcc **** 		this->_S_copy(__another, _M_data(), __len);
 204:/usr/include/c++/13/bits/basic_string.tcc **** 		_M_dispose();
 205:/usr/include/c++/13/bits/basic_string.tcc **** 		_M_data(__another);
 206:/usr/include/c++/13/bits/basic_string.tcc **** 		_M_capacity(__capacity);
 207:/usr/include/c++/13/bits/basic_string.tcc **** 	      }
 208:/usr/include/c++/13/bits/basic_string.tcc **** 	    traits_type::assign(_M_data()[__len++], *__beg);
 209:/usr/include/c++/13/bits/basic_string.tcc **** 	    ++__beg;
 210:/usr/include/c++/13/bits/basic_string.tcc **** 	  }
 211:/usr/include/c++/13/bits/basic_string.tcc **** 
 212:/usr/include/c++/13/bits/basic_string.tcc **** 	__guard._M_guarded = 0;
 213:/usr/include/c++/13/bits/basic_string.tcc **** 
 214:/usr/include/c++/13/bits/basic_string.tcc **** 	_M_set_length(__len);
 215:/usr/include/c++/13/bits/basic_string.tcc ****       }
 216:/usr/include/c++/13/bits/basic_string.tcc **** 
 217:/usr/include/c++/13/bits/basic_string.tcc ****   template<typename _CharT, typename _Traits, typename _Alloc>
 218:/usr/include/c++/13/bits/basic_string.tcc ****     template<typename _InIterator>
 219:/usr/include/c++/13/bits/basic_string.tcc ****       _GLIBCXX20_CONSTEXPR
 220:/usr/include/c++/13/bits/basic_string.tcc ****       void
 221:/usr/include/c++/13/bits/basic_string.tcc ****       basic_string<_CharT, _Traits, _Alloc>::
 222:/usr/include/c++/13/bits/basic_string.tcc ****       _M_construct(_InIterator __beg, _InIterator __end,
 223:/usr/include/c++/13/bits/basic_string.tcc **** 		   std::forward_iterator_tag)
 224:/usr/include/c++/13/bits/basic_string.tcc ****       {
 225:/usr/include/c++/13/bits/basic_string.tcc **** 	size_type __dnew = static_cast<size_type>(std::distance(__beg, __end));
 208              		.loc 7 225 12 discriminator 1 view .LVU37
 209 004e 48890424 		movq	%rax, (%rsp)
 210              	.LBE421:
 211              	.LBE420:
 212              	.LBB449:
 213              	.LBB419:
 214              		.loc 6 399 25 view .LVU38
 215 0052 4889C5   		movq	%rax, %rbp
 216              	.LVL13:
 217              		.loc 6 399 25 view .LVU39
 218              	.LBE419:
 219              	.LBE449:
 220              	.LBB450:
 221              	.LBI420:
 221:/usr/include/c++/13/bits/basic_string.tcc ****       _M_construct(_InIterator __beg, _InIterator __end,
 222              		.loc 7 221 7 is_stmt 1 view .LVU40
 223              	.LBB448:
 226:/usr/include/c++/13/bits/basic_string.tcc **** 
 227:/usr/include/c++/13/bits/basic_string.tcc **** 	if (__dnew > size_type(_S_local_capacity))
 224              		.loc 7 227 2 is_stmt 0 view .LVU41
 225 0055 4883F80F 		cmpq	$15, %rax
 226 0059 7618     		jbe	.L9
 228:/usr/include/c++/13/bits/basic_string.tcc **** 	  {
 229:/usr/include/c++/13/bits/basic_string.tcc **** 	    _M_data(_M_create(__dnew, size_type(0)));
 227              		.loc 7 229 13 view .LVU42
GAS LISTING /tmp/cctiEWRC.s 			page 34


 228 005b 4889E6   		movq	%rsp, %rsi
 229 005e 31D2     		xorl	%edx, %edx
 230 0060 4889DF   		movq	%rbx, %rdi
 231 0063 E8000000 		call	_ZNSt7__cxx1112basic_stringIcSt11char_traitsIcESaIcEE9_M_createERmm@PLT
 231      00
 232              	.LVL14:
 233              	.LBB422:
 234              	.LBI422:
 212:/usr/include/c++/13/bits/basic_string.h ****       { _M_dataplus._M_p = __p; }
 235              		.loc 3 212 7 is_stmt 1 view .LVU43
 236              	.LBB423:
 213:/usr/include/c++/13/bits/basic_string.h **** 
 237              		.loc 3 213 26 is_stmt 0 view .LVU44
 238 0068 488903   		movq	%rax, (%rbx)
 239              	.LVL15:
 213:/usr/include/c++/13/bits/basic_string.h **** 
 240              		.loc 3 213 26 view .LVU45
 241              	.LBE423:
 242              	.LBE422:
 243              	.LBB424:
 244              	.LBI424:
 249:/usr/include/c++/13/bits/basic_string.h ****       { _M_allocated_capacity = __capacity; }
 245              		.loc 3 249 7 is_stmt 1 view .LVU46
 246              	.LBB425:
 250:/usr/include/c++/13/bits/basic_string.h **** 
 247              		.loc 3 250 31 is_stmt 0 view .LVU47
 248 006b 488B0424 		movq	(%rsp), %rax
 249 006f 48894310 		movq	%rax, 16(%rbx)
 250              	.LVL16:
 251              	.L9:
 250:/usr/include/c++/13/bits/basic_string.h **** 
 252              		.loc 3 250 31 view .LVU48
 253              	.LBE425:
 254              	.LBE424:
 255              	.LBB426:
 256              	.LBI426:
 230:/usr/include/c++/13/bits/basic_string.tcc **** 	    _M_capacity(__dnew);
 231:/usr/include/c++/13/bits/basic_string.tcc **** 	  }
 232:/usr/include/c++/13/bits/basic_string.tcc **** 	else
 233:/usr/include/c++/13/bits/basic_string.tcc **** 	  _M_init_local_buf();
 234:/usr/include/c++/13/bits/basic_string.tcc **** 
 235:/usr/include/c++/13/bits/basic_string.tcc **** 	// Check for out_of_range and length_error exceptions.
 236:/usr/include/c++/13/bits/basic_string.tcc **** 	struct _Guard
 237:/usr/include/c++/13/bits/basic_string.tcc **** 	{
 238:/usr/include/c++/13/bits/basic_string.tcc **** 	  _GLIBCXX20_CONSTEXPR
 239:/usr/include/c++/13/bits/basic_string.tcc **** 	  explicit _Guard(basic_string* __s) : _M_guarded(__s) { }
 257              		.loc 7 239 13 is_stmt 1 view .LVU49
 258              		.loc 7 239 13 is_stmt 0 view .LVU50
 259              	.LBE426:
 260              	.LBB427:
 261              	.LBI427:
 222:/usr/include/c++/13/bits/basic_string.h ****       { return _M_dataplus._M_p; }
 262              		.loc 3 222 7 is_stmt 1 view .LVU51
 263              	.LBB428:
 223:/usr/include/c++/13/bits/basic_string.h **** 
 264              		.loc 3 223 28 is_stmt 0 view .LVU52
 265 0073 488B03   		movq	(%rbx), %rax
GAS LISTING /tmp/cctiEWRC.s 			page 35


 266              	.LVL17:
 223:/usr/include/c++/13/bits/basic_string.h **** 
 267              		.loc 3 223 28 view .LVU53
 268              	.LBE428:
 269              	.LBE427:
 270              	.LBB429:
 271              	.LBI429:
 482:/usr/include/c++/13/bits/basic_string.h ****       _GLIBCXX_NOEXCEPT
 272              		.loc 3 482 7 is_stmt 1 view .LVU54
 273              	.LBB430:
 274              	.LBI430:
 425:/usr/include/c++/13/bits/basic_string.h ****       {
 275              		.loc 3 425 7 view .LVU55
 276              	.LBB431:
 427:/usr/include/c++/13/bits/basic_string.h **** 	  traits_type::assign(*__d, *__s);
 277              		.loc 3 427 2 is_stmt 0 view .LVU56
 278 0076 4883FD01 		cmpq	$1, %rbp
 279 007a 7508     		jne	.L10
 280              	.LVL18:
 281              	.LBB432:
 282              	.LBI432:
 351:/usr/include/c++/13/bits/char_traits.h ****       {
 283              		.loc 6 351 7 is_stmt 1 view .LVU57
 284              	.LBB433:
 358:/usr/include/c++/13/bits/char_traits.h ****       }
 285              		.loc 6 358 2 view .LVU58
 358:/usr/include/c++/13/bits/char_traits.h ****       }
 286              		.loc 6 358 9 is_stmt 0 view .LVU59
 287 007c 418A1424 		movb	(%r12), %dl
 358:/usr/include/c++/13/bits/char_traits.h ****       }
 288              		.loc 6 358 7 view .LVU60
 289 0080 8810     		movb	%dl, (%rax)
 290              	.LVL19:
 359:/usr/include/c++/13/bits/char_traits.h **** 
 291              		.loc 6 359 7 view .LVU61
 292 0082 EB10     		jmp	.L11
 293              	.L10:
 294              	.LVL20:
 359:/usr/include/c++/13/bits/char_traits.h **** 
 295              		.loc 6 359 7 view .LVU62
 296              	.LBE433:
 297              	.LBE432:
 298              	.LBB434:
 299              	.LBI434:
 425:/usr/include/c++/13/bits/basic_string.h ****       {
 300              		.loc 3 425 7 is_stmt 1 view .LVU63
 301              	.LBB435:
 302              	.LBI435:
 400:/usr/include/c++/13/bits/char_traits.h ****       }
 401:/usr/include/c++/13/bits/char_traits.h **** 
 402:/usr/include/c++/13/bits/char_traits.h ****       static _GLIBCXX17_CONSTEXPR const char_type*
 403:/usr/include/c++/13/bits/char_traits.h ****       find(const char_type* __s, size_t __n, const char_type& __a)
 404:/usr/include/c++/13/bits/char_traits.h ****       {
 405:/usr/include/c++/13/bits/char_traits.h **** 	if (__n == 0)
 406:/usr/include/c++/13/bits/char_traits.h **** 	  return 0;
 407:/usr/include/c++/13/bits/char_traits.h **** #if __cplusplus >= 201703L
 408:/usr/include/c++/13/bits/char_traits.h **** 	if (std::__is_constant_evaluated())
GAS LISTING /tmp/cctiEWRC.s 			page 36


 409:/usr/include/c++/13/bits/char_traits.h **** 	  return __gnu_cxx::char_traits<char_type>::find(__s, __n, __a);
 410:/usr/include/c++/13/bits/char_traits.h **** #endif
 411:/usr/include/c++/13/bits/char_traits.h **** 	return static_cast<const char_type*>(__builtin_memchr(__s, __a, __n));
 412:/usr/include/c++/13/bits/char_traits.h ****       }
 413:/usr/include/c++/13/bits/char_traits.h **** 
 414:/usr/include/c++/13/bits/char_traits.h ****       static _GLIBCXX20_CONSTEXPR char_type*
 415:/usr/include/c++/13/bits/char_traits.h ****       move(char_type* __s1, const char_type* __s2, size_t __n)
 416:/usr/include/c++/13/bits/char_traits.h ****       {
 417:/usr/include/c++/13/bits/char_traits.h **** 	if (__n == 0)
 418:/usr/include/c++/13/bits/char_traits.h **** 	  return __s1;
 419:/usr/include/c++/13/bits/char_traits.h **** #if __cplusplus >= 202002L
 420:/usr/include/c++/13/bits/char_traits.h **** 	if (std::__is_constant_evaluated())
 421:/usr/include/c++/13/bits/char_traits.h **** 	  return __gnu_cxx::char_traits<char_type>::move(__s1, __s2, __n);
 422:/usr/include/c++/13/bits/char_traits.h **** #endif
 423:/usr/include/c++/13/bits/char_traits.h **** 	return static_cast<char_type*>(__builtin_memmove(__s1, __s2, __n));
 424:/usr/include/c++/13/bits/char_traits.h ****       }
 425:/usr/include/c++/13/bits/char_traits.h **** 
 426:/usr/include/c++/13/bits/char_traits.h ****       static _GLIBCXX20_CONSTEXPR char_type*
 427:/usr/include/c++/13/bits/char_traits.h ****       copy(char_type* __s1, const char_type* __s2, size_t __n)
 303              		.loc 6 427 7 view .LVU64
 304              	.LBB436:
 428:/usr/include/c++/13/bits/char_traits.h ****       {
 429:/usr/include/c++/13/bits/char_traits.h **** 	if (__n == 0)
 305              		.loc 6 429 2 view .LVU65
 306 0084 4885ED   		testq	%rbp, %rbp
 307 0087 740B     		je	.L11
 430:/usr/include/c++/13/bits/char_traits.h **** 	  return __s1;
 431:/usr/include/c++/13/bits/char_traits.h **** #if __cplusplus >= 202002L
 432:/usr/include/c++/13/bits/char_traits.h **** 	if (std::__is_constant_evaluated())
 433:/usr/include/c++/13/bits/char_traits.h **** 	  return __gnu_cxx::char_traits<char_type>::copy(__s1, __s2, __n);
 434:/usr/include/c++/13/bits/char_traits.h **** #endif
 435:/usr/include/c++/13/bits/char_traits.h **** 	return static_cast<char_type*>(__builtin_memcpy(__s1, __s2, __n));
 308              		.loc 6 435 2 view .LVU66
 309              		.loc 6 435 49 is_stmt 0 view .LVU67
 310 0089 4889C7   		movq	%rax, %rdi
 311 008c 4C89E6   		movq	%r12, %rsi
 312 008f 4889E9   		movq	%rbp, %rcx
 313 0092 F3A4     		rep movsb
 314              	.LVL21:
 315              	.L11:
 316              		.loc 6 435 49 view .LVU68
 317              	.LBE436:
 318              	.LBE435:
 319              	.LBE434:
 320              	.LBE431:
 321              	.LBE430:
 322              	.LBE429:
 240:/usr/include/c++/13/bits/basic_string.tcc **** 
 241:/usr/include/c++/13/bits/basic_string.tcc **** 	  _GLIBCXX20_CONSTEXPR
 242:/usr/include/c++/13/bits/basic_string.tcc **** 	  ~_Guard() { if (_M_guarded) _M_guarded->_M_dispose(); }
 243:/usr/include/c++/13/bits/basic_string.tcc **** 
 244:/usr/include/c++/13/bits/basic_string.tcc **** 	  basic_string* _M_guarded;
 245:/usr/include/c++/13/bits/basic_string.tcc **** 	} __guard(this);
 246:/usr/include/c++/13/bits/basic_string.tcc **** 
 247:/usr/include/c++/13/bits/basic_string.tcc **** 	this->_S_copy_chars(_M_data(), __beg, __end);
 248:/usr/include/c++/13/bits/basic_string.tcc **** 
 249:/usr/include/c++/13/bits/basic_string.tcc **** 	__guard._M_guarded = 0;
GAS LISTING /tmp/cctiEWRC.s 			page 37


 250:/usr/include/c++/13/bits/basic_string.tcc **** 
 251:/usr/include/c++/13/bits/basic_string.tcc **** 	_M_set_length(__dnew);
 323              		.loc 7 251 15 view .LVU69
 324 0094 488B0424 		movq	(%rsp), %rax
 325              	.LVL22:
 326              	.LBB437:
 327              	.LBI437:
 254:/usr/include/c++/13/bits/basic_string.h ****       {
 328              		.loc 3 254 7 is_stmt 1 view .LVU70
 329              	.LBB438:
 330              	.LBB439:
 331              	.LBI439:
 217:/usr/include/c++/13/bits/basic_string.h ****       { _M_string_length = __length; }
 332              		.loc 3 217 7 view .LVU71
 333              	.LBE439:
 334              	.LBB441:
 335              	.LBB442:
 358:/usr/include/c++/13/bits/char_traits.h ****       }
 336              		.loc 6 358 7 is_stmt 0 view .LVU72
 337 0098 488B13   		movq	(%rbx), %rdx
 338              	.LBE442:
 339              	.LBE441:
 340              	.LBB444:
 341              	.LBB440:
 218:/usr/include/c++/13/bits/basic_string.h **** 
 342              		.loc 3 218 26 view .LVU73
 343 009b 48894308 		movq	%rax, 8(%rbx)
 344              	.LVL23:
 218:/usr/include/c++/13/bits/basic_string.h **** 
 345              		.loc 3 218 26 view .LVU74
 346              	.LBE440:
 347              	.LBE444:
 348              	.LBB445:
 349              	.LBI445:
 222:/usr/include/c++/13/bits/basic_string.h ****       { return _M_dataplus._M_p; }
 350              		.loc 3 222 7 is_stmt 1 view .LVU75
 222:/usr/include/c++/13/bits/basic_string.h ****       { return _M_dataplus._M_p; }
 351              		.loc 3 222 7 is_stmt 0 view .LVU76
 352              	.LBE445:
 353              	.LBB446:
 354              	.LBI441:
 351:/usr/include/c++/13/bits/char_traits.h ****       {
 355              		.loc 6 351 7 is_stmt 1 view .LVU77
 356              	.LBB443:
 358:/usr/include/c++/13/bits/char_traits.h ****       }
 357              		.loc 6 358 2 view .LVU78
 358:/usr/include/c++/13/bits/char_traits.h ****       }
 358              		.loc 6 358 7 is_stmt 0 view .LVU79
 359 009f C6040200 		movb	$0, (%rdx,%rax)
 360              	.LVL24:
 358:/usr/include/c++/13/bits/char_traits.h ****       }
 361              		.loc 6 358 7 view .LVU80
 362              	.LBE443:
 363              	.LBE446:
 364              	.LBE438:
 365              	.LBE437:
 366              	.LBB447:
GAS LISTING /tmp/cctiEWRC.s 			page 38


 367              	.LBI447:
 242:/usr/include/c++/13/bits/basic_string.tcc **** 
 368              		.loc 7 242 4 is_stmt 1 view .LVU81
 242:/usr/include/c++/13/bits/basic_string.tcc **** 
 369              		.loc 7 242 4 is_stmt 0 view .LVU82
 370              	.LBE447:
 371              	.LBE448:
 372              	.LBE450:
 373              	.LBE453:
 647:/usr/include/c++/13/bits/basic_string.h **** 				       "construction from null is not valid"));
 648:/usr/include/c++/13/bits/basic_string.h **** 	const _CharT* __end = __s + traits_type::length(__s);
 649:/usr/include/c++/13/bits/basic_string.h **** 	_M_construct(__s, __end, forward_iterator_tag());
 650:/usr/include/c++/13/bits/basic_string.h ****       }
 374              		.loc 3 650 7 view .LVU83
 375 00a3 488B4424 		movq	8(%rsp), %rax
 375      08
 376 00a8 64482B04 		subq	%fs:40, %rax
 376      25280000 
 376      00
 377 00b1 7405     		je	.L12
 378              	.LVL25:
 379              	.L17:
 380              		.loc 3 650 7 view .LVU84
 381 00b3 E8000000 		call	__stack_chk_fail@PLT
 381      00
 382              	.LVL26:
 383              	.L12:
 384              		.loc 3 650 7 view .LVU85
 385 00b8 4883C410 		addq	$16, %rsp
 386              		.cfi_def_cfa_offset 32
 387 00bc 5B       		popq	%rbx
 388              		.cfi_def_cfa_offset 24
 389              	.LVL27:
 390              		.loc 3 650 7 view .LVU86
 391 00bd 5D       		popq	%rbp
 392              		.cfi_def_cfa_offset 16
 393              	.LVL28:
 394              		.loc 3 650 7 view .LVU87
 395 00be 415C     		popq	%r12
 396              		.cfi_def_cfa_offset 8
 397              	.LVL29:
 398              		.loc 3 650 7 view .LVU88
 399 00c0 C3       		ret
 400              		.cfi_endproc
 401              	.LFE3276:
 402              		.size	_ZNSt7__cxx1112basic_stringIcSt11char_traitsIcESaIcEEC2EPKcRKS3_.isra.0, .-_ZNSt7__cxx1112ba
 403              		.text
 404              		.align 2
 405 0012 66662E0F 		.p2align 4
 405      1F840000 
 405      0000000F 
 405      1F00
 406              		.globl	_ZN15VeryLongModularC2Ev
 407              		.type	_ZN15VeryLongModularC2Ev, @function
 408              	_ZN15VeryLongModularC2Ev:
 409              	.LVL30:
 410              	.LFB2568:
GAS LISTING /tmp/cctiEWRC.s 			page 39


   6:VeryLongModular.cpp **** {
 411              		.loc 1 6 1 is_stmt 1 view -0
 412              		.cfi_startproc
   6:VeryLongModular.cpp **** {
 413              		.loc 1 6 1 is_stmt 0 view .LVU90
 414 0020 F30F1EFA 		endbr64
 415              	.LBB457:
   8:VeryLongModular.cpp ****     mpz_init(vl_);
 416              		.loc 1 8 5 is_stmt 1 view .LVU91
 417              	.LBB458:
 418              	.LBI458:
 419              		.file 8 "VeryLongModular.h"
   1:VeryLongModular.h **** #ifndef __VERYLONGMODULAR_H
   2:VeryLongModular.h **** #define __VERYLONGMODULAR_H
   3:VeryLongModular.h **** #include <iostream>
   4:VeryLongModular.h **** #include "VeryLong.h"
   5:VeryLongModular.h **** extern "C"
   6:VeryLongModular.h **** {
   7:VeryLongModular.h **** #include <gmp.h>
   8:VeryLongModular.h **** }
   9:VeryLongModular.h **** 
  10:VeryLongModular.h **** class VeryLongModular
  11:VeryLongModular.h **** {
  12:VeryLongModular.h **** public:
  13:VeryLongModular.h ****     friend class VeryLong;
  14:VeryLongModular.h ****     VeryLongModular();
  15:VeryLongModular.h ****     VeryLongModular(const VeryLong& modulus);
  16:VeryLongModular.h ****     VeryLongModular(const VeryLongModular& vl);
  17:VeryLongModular.h ****     VeryLongModular(const VeryLong& modulus, char* s);
  18:VeryLongModular.h ****     VeryLongModular(const VeryLong& modulus, long l);
  19:VeryLongModular.h ****     VeryLongModular(const VeryLong& modulus, const VeryLong& vl);
  20:VeryLongModular.h ****     explicit VeryLongModular(const long int li);
  21:VeryLongModular.h ****     VeryLongModular(const long long int lli);
  22:VeryLongModular.h ****     ~VeryLongModular();
  23:VeryLongModular.h ****     int operator== (const VeryLongModular& vl) const;
  24:VeryLongModular.h ****     int operator== (const VeryLong& vl) const;
  25:VeryLongModular.h ****     bool operator== (const long int li) const
  26:VeryLongModular.h ****     {
  27:VeryLongModular.h ****         return (*this == VeryLong(li));
  28:VeryLongModular.h ****     }
  29:VeryLongModular.h ****     int is_zero() const;
  30:VeryLongModular.h ****     int is_one() const;
  31:VeryLongModular.h ****     int operator!= (const VeryLongModular& vl) const;
  32:VeryLongModular.h ****     /*  int operator!= (const VeryLong& vl) const
  33:VeryLongModular.h ****         {
  34:VeryLongModular.h ****            return !(*this == vl);
  35:VeryLongModular.h ****         }*/
  36:VeryLongModular.h ****     int operator< (const VeryLongModular& vl) const
  37:VeryLongModular.h ****     {
  38:VeryLongModular.h ****         return (mpz_cmp(vl_, vl.vl_) < 0);
  39:VeryLongModular.h ****     }
  40:VeryLongModular.h ****     int operator> (const VeryLongModular& vl) const
  41:VeryLongModular.h ****     {
  42:VeryLongModular.h ****         return (mpz_cmp(vl_, vl.vl_) > 0);
  43:VeryLongModular.h ****     }
  44:VeryLongModular.h ****     int operator< (const long int li) const
  45:VeryLongModular.h ****     {
GAS LISTING /tmp/cctiEWRC.s 			page 40


  46:VeryLongModular.h ****         return 0;
  47:VeryLongModular.h ****     }
  48:VeryLongModular.h ****     VeryLongModular& operator= (const VeryLongModular& vl);
  49:VeryLongModular.h ****     VeryLongModular& operator= (const VeryLong& vl);
  50:VeryLongModular.h ****     VeryLongModular& operator+= (const VeryLongModular& vl);
  51:VeryLongModular.h ****     VeryLongModular& operator-= (const VeryLongModular& vl);
  52:VeryLongModular.h ****     VeryLongModular& operator*= (const VeryLongModular& vl);
  53:VeryLongModular.h ****     VeryLongModular& operator/= (const VeryLongModular& vl);
  54:VeryLongModular.h ****     VeryLongModular operator- () const;
  55:VeryLongModular.h ****     friend VeryLongModular inverse (const VeryLongModular& vl);
  56:VeryLongModular.h ****     VeryLongModular& exp(const long int& li);
  57:VeryLongModular.h **** 
  58:VeryLongModular.h ****     friend VeryLongModular exp(const VeryLongModular& vl1, const VeryLongModular& vl2);
  59:VeryLongModular.h ****     friend VeryLongModular exp(const VeryLongModular& vl1, const long int& li2);
  60:VeryLongModular.h ****     friend VeryLongModular operator+ (const VeryLongModular& vl1, const VeryLongModular& vl2);
  61:VeryLongModular.h ****     friend VeryLongModular operator- (const VeryLongModular& vl1, const VeryLongModular& vl2);
  62:VeryLongModular.h ****     friend VeryLongModular operator* (const VeryLongModular& vl1, const VeryLongModular& vl2);
  63:VeryLongModular.h ****     friend VeryLongModular operator/ (const VeryLongModular& vl1, const VeryLongModular& vl2);
  64:VeryLongModular.h ****     friend VeryLongModular operator% (const VeryLongModular& vl1, const VeryLongModular& vl2);
  65:VeryLongModular.h **** 
  66:VeryLongModular.h ****     friend ostream& operator<< (ostream& os, const VeryLongModular& vl);
  67:VeryLongModular.h **** 
  68:VeryLongModular.h ****     VeryLongModular& add_product(const VeryLongModular& x, const VeryLongModular& y, const VeryLong
  69:VeryLongModular.h **** 
  70:VeryLongModular.h ****     VeryLong get_very_long() const
  71:VeryLongModular.h ****     {
  72:VeryLongModular.h ****         VeryLong vl;
  73:VeryLongModular.h ****         mpz_set(vl.vl_, vl_);
  74:VeryLongModular.h ****         return vl;
  75:VeryLongModular.h ****     }
  76:VeryLongModular.h **** 
  77:VeryLongModular.h ****     static void set_default_modulus(const VeryLong& modulus)
  78:VeryLongModular.h ****     {
  79:VeryLongModular.h ****         staticInit();
  80:VeryLongModular.h ****         mpz_set(modulus_, modulus.vl_);
  81:VeryLongModular.h ****     }
  82:VeryLongModular.h ****     static VeryLong get_default_modulus()
  83:VeryLongModular.h ****     {
  84:VeryLongModular.h ****         VeryLong vl;
  85:VeryLongModular.h ****         mpz_set(vl.vl_, modulus_);
  86:VeryLongModular.h ****         return vl;
  87:VeryLongModular.h ****     }
  88:VeryLongModular.h **** private:
  89:VeryLongModular.h ****     static mpz_t modulus_;
  90:VeryLongModular.h ****     mpz_t vl_;
  91:VeryLongModular.h ****     static int staticInitDone;
  92:VeryLongModular.h ****     static void staticInit()
 420              		.loc 8 92 17 view .LVU92
 421              	.LBB459:
  93:VeryLongModular.h ****     {
  94:VeryLongModular.h ****         if (!staticInitDone)
 422              		.loc 8 94 9 view .LVU93
 423              	.LBE459:
 424              	.LBE458:
 425              	.LBE457:
   6:VeryLongModular.cpp **** {
 426              		.loc 1 6 1 is_stmt 0 view .LVU94
GAS LISTING /tmp/cctiEWRC.s 			page 41


 427 0024 55       		pushq	%rbp
 428              		.cfi_def_cfa_offset 16
 429              		.cfi_offset 6, -16
 430 0025 53       		pushq	%rbx
 431              		.cfi_def_cfa_offset 24
 432              		.cfi_offset 3, -24
 433 0026 4889FB   		movq	%rdi, %rbx
 434 0029 4883EC08 		subq	$8, %rsp
 435              		.cfi_def_cfa_offset 32
 436              	.LBB466:
 437              	.LBB463:
 438              	.LBB460:
 439              		.loc 8 94 9 view .LVU95
 440 002d 8B050000 		movl	_ZN15VeryLongModular14staticInitDoneE(%rip), %eax
 440      0000
 441 0033 85C0     		testl	%eax, %eax
 442 0035 7411     		je	.L21
 443              	.LBE460:
 444              	.LBE463:
   9:VeryLongModular.cpp **** }
 445              		.loc 1 9 5 is_stmt 1 view .LVU96
 446              	.LBE466:
  10:VeryLongModular.cpp **** 
 447              		.loc 1 10 1 is_stmt 0 view .LVU97
 448 0037 4883C408 		addq	$8, %rsp
 449              		.cfi_remember_state
 450              		.cfi_def_cfa_offset 24
 451              	.LBB467:
   9:VeryLongModular.cpp **** }
 452              		.loc 1 9 13 view .LVU98
 453 003b 4889DF   		movq	%rbx, %rdi
 454              	.LVL31:
   9:VeryLongModular.cpp **** }
 455              		.loc 1 9 13 view .LVU99
 456              	.LBE467:
  10:VeryLongModular.cpp **** 
 457              		.loc 1 10 1 view .LVU100
 458 003e 5B       		popq	%rbx
 459              		.cfi_def_cfa_offset 16
 460              	.LVL32:
  10:VeryLongModular.cpp **** 
 461              		.loc 1 10 1 view .LVU101
 462 003f 5D       		popq	%rbp
 463              		.cfi_def_cfa_offset 8
 464              	.LBB468:
   9:VeryLongModular.cpp **** }
 465              		.loc 1 9 13 view .LVU102
 466 0040 E9000000 		jmp	__gmpz_init@PLT
 466      00
 467              	.LVL33:
 468              		.p2align 4,,10
 469 0045 0F1F00   		.p2align 3
 470              	.L21:
 471              		.cfi_restore_state
 472              	.LBB464:
 473              	.LBB461:
  95:VeryLongModular.h ****         {
GAS LISTING /tmp/cctiEWRC.s 			page 42


  96:VeryLongModular.h ****             mpz_init(modulus_);
 474              		.loc 8 96 13 is_stmt 1 view .LVU103
 475              		.loc 8 96 21 is_stmt 0 view .LVU104
 476 0048 488D2D00 		leaq	_ZN15VeryLongModular8modulus_E(%rip), %rbp
 476      000000
 477 004f 4889EF   		movq	%rbp, %rdi
 478 0052 E8000000 		call	__gmpz_init@PLT
 478      00
 479              	.LVL34:
  97:VeryLongModular.h ****             mpz_set_ui(modulus_, 1L);
 480              		.loc 8 97 13 is_stmt 1 view .LVU105
 481              		.loc 8 97 23 is_stmt 0 view .LVU106
 482 0057 4889EF   		movq	%rbp, %rdi
 483 005a BE010000 		movl	$1, %esi
 483      00
 484 005f E8000000 		call	__gmpz_set_ui@PLT
 484      00
 485              	.LVL35:
  98:VeryLongModular.h ****             staticInitDone = 1;
 486              		.loc 8 98 13 is_stmt 1 view .LVU107
 487              	.LBE461:
 488              	.LBE464:
   9:VeryLongModular.cpp **** }
 489              		.loc 1 9 13 is_stmt 0 view .LVU108
 490 0064 4889DF   		movq	%rbx, %rdi
 491              	.LBB465:
 492              	.LBB462:
 493              		.loc 8 98 28 view .LVU109
 494 0067 C7050000 		movl	$1, _ZN15VeryLongModular14staticInitDoneE(%rip)
 494      00000100 
 494      0000
 495              	.LBE462:
 496              	.LBE465:
   9:VeryLongModular.cpp **** }
 497              		.loc 1 9 5 is_stmt 1 view .LVU110
 498              	.LBE468:
  10:VeryLongModular.cpp **** 
 499              		.loc 1 10 1 is_stmt 0 view .LVU111
 500 0071 4883C408 		addq	$8, %rsp
 501              		.cfi_def_cfa_offset 24
 502 0075 5B       		popq	%rbx
 503              		.cfi_def_cfa_offset 16
 504              	.LVL36:
  10:VeryLongModular.cpp **** 
 505              		.loc 1 10 1 view .LVU112
 506 0076 5D       		popq	%rbp
 507              		.cfi_def_cfa_offset 8
 508              	.LBB469:
   9:VeryLongModular.cpp **** }
 509              		.loc 1 9 13 view .LVU113
 510 0077 E9000000 		jmp	__gmpz_init@PLT
 510      00
 511              	.LVL37:
   9:VeryLongModular.cpp **** }
 512              		.loc 1 9 13 view .LVU114
 513              	.LBE469:
 514              		.cfi_endproc
GAS LISTING /tmp/cctiEWRC.s 			page 43


 515              	.LFE2568:
 516              		.size	_ZN15VeryLongModularC2Ev, .-_ZN15VeryLongModularC2Ev
 517              		.globl	_ZN15VeryLongModularC1Ev
 518              		.set	_ZN15VeryLongModularC1Ev,_ZN15VeryLongModularC2Ev
 519              		.align 2
 520 007c 0F1F4000 		.p2align 4
 521              		.globl	_ZN15VeryLongModularC2ERK8VeryLong
 522              		.type	_ZN15VeryLongModularC2ERK8VeryLong, @function
 523              	_ZN15VeryLongModularC2ERK8VeryLong:
 524              	.LVL38:
 525              	.LFB2574:
  16:VeryLongModular.cpp **** 
  17:VeryLongModular.cpp **** VeryLongModular::VeryLongModular(const VeryLong& vl)
 526              		.loc 1 17 1 is_stmt 1 view -0
 527              		.cfi_startproc
 528              		.loc 1 17 1 is_stmt 0 view .LVU116
 529 0080 F30F1EFA 		endbr64
 530              	.LBB473:
  18:VeryLongModular.cpp **** {
  19:VeryLongModular.cpp ****     staticInit();
 531              		.loc 1 19 5 is_stmt 1 view .LVU117
 532              	.LBB474:
 533              	.LBI474:
  92:VeryLongModular.h ****     {
 534              		.loc 8 92 17 view .LVU118
 535              	.LBB475:
  94:VeryLongModular.h ****         {
 536              		.loc 8 94 9 view .LVU119
 537 0084 8B050000 		movl	_ZN15VeryLongModular14staticInitDoneE(%rip), %eax
 537      0000
 538              	.LBE475:
 539              	.LBE474:
 540              	.LBE473:
  17:VeryLongModular.cpp **** {
 541              		.loc 1 17 1 is_stmt 0 view .LVU120
 542 008a 4154     		pushq	%r12
 543              		.cfi_def_cfa_offset 16
 544              		.cfi_offset 12, -16
 545 008c 4C8D2500 		leaq	_ZN15VeryLongModular8modulus_E(%rip), %r12
 545      000000
 546 0093 55       		pushq	%rbp
 547              		.cfi_def_cfa_offset 24
 548              		.cfi_offset 6, -24
 549 0094 4889F5   		movq	%rsi, %rbp
 550 0097 53       		pushq	%rbx
 551              		.cfi_def_cfa_offset 32
 552              		.cfi_offset 3, -32
  17:VeryLongModular.cpp **** {
 553              		.loc 1 17 1 view .LVU121
 554 0098 4889FB   		movq	%rdi, %rbx
 555              	.LBB480:
 556              	.LBB478:
 557              	.LBB476:
  94:VeryLongModular.h ****         {
 558              		.loc 8 94 9 view .LVU122
 559 009b 85C0     		testl	%eax, %eax
 560 009d 7421     		je	.L26
GAS LISTING /tmp/cctiEWRC.s 			page 44


 561              	.LVL39:
 562              	.L23:
  94:VeryLongModular.h ****         {
 563              		.loc 8 94 9 view .LVU123
 564              	.LBE476:
 565              	.LBE478:
  20:VeryLongModular.cpp ****     mpz_init_set(vl_, vl.vl_);
 566              		.loc 1 20 5 is_stmt 1 view .LVU124
 567              		.loc 1 20 17 is_stmt 0 view .LVU125
 568 009f 4889EE   		movq	%rbp, %rsi
 569 00a2 4889DF   		movq	%rbx, %rdi
 570 00a5 E8000000 		call	__gmpz_init_set@PLT
 570      00
 571              	.LVL40:
  21:VeryLongModular.cpp ****     mpz_mod(vl_, vl_, modulus_);
 572              		.loc 1 21 5 is_stmt 1 view .LVU126
 573              		.loc 1 21 12 is_stmt 0 view .LVU127
 574 00aa 4C89E2   		movq	%r12, %rdx
 575 00ad 4889DE   		movq	%rbx, %rsi
 576 00b0 4889DF   		movq	%rbx, %rdi
 577              	.LBE480:
  22:VeryLongModular.cpp **** }
 578              		.loc 1 22 1 view .LVU128
 579 00b3 5B       		popq	%rbx
 580              		.cfi_remember_state
 581              		.cfi_def_cfa_offset 24
 582              	.LVL41:
 583              		.loc 1 22 1 view .LVU129
 584 00b4 5D       		popq	%rbp
 585              		.cfi_def_cfa_offset 16
 586              	.LVL42:
 587              		.loc 1 22 1 view .LVU130
 588 00b5 415C     		popq	%r12
 589              		.cfi_def_cfa_offset 8
 590              	.LBB481:
  21:VeryLongModular.cpp ****     mpz_mod(vl_, vl_, modulus_);
 591              		.loc 1 21 12 view .LVU131
 592 00b7 E9000000 		jmp	__gmpz_mod@PLT
 592      00
 593              	.LVL43:
 594 00bc 0F1F4000 		.p2align 4,,10
 595              		.p2align 3
 596              	.L26:
 597              		.cfi_restore_state
 598              	.LBB479:
 599              	.LBB477:
  96:VeryLongModular.h ****             mpz_set_ui(modulus_, 1L);
 600              		.loc 8 96 13 is_stmt 1 view .LVU132
  96:VeryLongModular.h ****             mpz_set_ui(modulus_, 1L);
 601              		.loc 8 96 21 is_stmt 0 view .LVU133
 602 00c0 4C89E7   		movq	%r12, %rdi
 603 00c3 E8000000 		call	__gmpz_init@PLT
 603      00
 604              	.LVL44:
  97:VeryLongModular.h ****             staticInitDone = 1;
 605              		.loc 8 97 13 is_stmt 1 view .LVU134
  97:VeryLongModular.h ****             staticInitDone = 1;
GAS LISTING /tmp/cctiEWRC.s 			page 45


 606              		.loc 8 97 23 is_stmt 0 view .LVU135
 607 00c8 BE010000 		movl	$1, %esi
 607      00
 608 00cd 4C89E7   		movq	%r12, %rdi
 609 00d0 E8000000 		call	__gmpz_set_ui@PLT
 609      00
 610              	.LVL45:
 611              		.loc 8 98 13 is_stmt 1 view .LVU136
 612              		.loc 8 98 28 is_stmt 0 view .LVU137
 613 00d5 C7050000 		movl	$1, _ZN15VeryLongModular14staticInitDoneE(%rip)
 613      00000100 
 613      0000
 614 00df EBBE     		jmp	.L23
 615              	.LBE477:
 616              	.LBE479:
 617              	.LBE481:
 618              		.cfi_endproc
 619              	.LFE2574:
 620              		.size	_ZN15VeryLongModularC2ERK8VeryLong, .-_ZN15VeryLongModularC2ERK8VeryLong
 621              		.globl	_ZN15VeryLongModularC1ERK8VeryLong
 622              		.set	_ZN15VeryLongModularC1ERK8VeryLong,_ZN15VeryLongModularC2ERK8VeryLong
 623 00e1 90       		.align 2
 624 00e2 66662E0F 		.p2align 4
 624      1F840000 
 624      0000000F 
 624      1F00
 625              		.globl	_ZN15VeryLongModularC2ERKS_
 626              		.type	_ZN15VeryLongModularC2ERKS_, @function
 627              	_ZN15VeryLongModularC2ERKS_:
 628              	.LVL46:
 629              	.LFB2577:
  23:VeryLongModular.cpp **** 
  24:VeryLongModular.cpp **** VeryLongModular::VeryLongModular(const VeryLongModular& vl)
 630              		.loc 1 24 1 is_stmt 1 view -0
 631              		.cfi_startproc
 632              		.loc 1 24 1 is_stmt 0 view .LVU139
 633 00f0 F30F1EFA 		endbr64
 634              	.LBB482:
  25:VeryLongModular.cpp **** {
  26:VeryLongModular.cpp ****     mpz_init_set(vl_, vl.vl_);
 635              		.loc 1 26 5 is_stmt 1 view .LVU140
 636              		.loc 1 26 17 is_stmt 0 view .LVU141
 637 00f4 E9000000 		jmp	__gmpz_init_set@PLT
 637      00
 638              	.LVL47:
 639              		.loc 1 26 17 view .LVU142
 640              	.LBE482:
 641              		.cfi_endproc
 642              	.LFE2577:
 643              		.size	_ZN15VeryLongModularC2ERKS_, .-_ZN15VeryLongModularC2ERKS_
 644              		.globl	_ZN15VeryLongModularC1ERKS_
 645              		.set	_ZN15VeryLongModularC1ERKS_,_ZN15VeryLongModularC2ERKS_
 646 00f9 90       		.align 2
 647 00fa 660F1F44 		.p2align 4
 647      0000
 648              		.globl	_ZN15VeryLongModularC2ERK8VeryLongPc
 649              		.type	_ZN15VeryLongModularC2ERK8VeryLongPc, @function
GAS LISTING /tmp/cctiEWRC.s 			page 46


 650              	_ZN15VeryLongModularC2ERK8VeryLongPc:
 651              	.LVL48:
 652              	.LFB2580:
  27:VeryLongModular.cpp **** }
  28:VeryLongModular.cpp **** 
  29:VeryLongModular.cpp **** VeryLongModular::VeryLongModular(const VeryLong& modulus, char* s)
 653              		.loc 1 29 1 is_stmt 1 view -0
 654              		.cfi_startproc
 655              		.loc 1 29 1 is_stmt 0 view .LVU144
 656 0100 F30F1EFA 		endbr64
 657              	.LBB483:
  30:VeryLongModular.cpp **** {
  31:VeryLongModular.cpp ****     mpz_set(modulus_, modulus.vl_);
 658              		.loc 1 31 5 is_stmt 1 view .LVU145
 659              	.LBE483:
  29:VeryLongModular.cpp **** {
 660              		.loc 1 29 1 is_stmt 0 view .LVU146
 661 0104 4154     		pushq	%r12
 662              		.cfi_def_cfa_offset 16
 663              		.cfi_offset 12, -16
 664              	.LBB484:
 665              		.loc 1 31 12 view .LVU147
 666 0106 4C8D2500 		leaq	_ZN15VeryLongModular8modulus_E(%rip), %r12
 666      000000
 667              	.LBE484:
  29:VeryLongModular.cpp **** {
 668              		.loc 1 29 1 view .LVU148
 669 010d 55       		pushq	%rbp
 670              		.cfi_def_cfa_offset 24
 671              		.cfi_offset 6, -24
 672 010e 4889D5   		movq	%rdx, %rbp
 673 0111 53       		pushq	%rbx
 674              		.cfi_def_cfa_offset 32
 675              		.cfi_offset 3, -32
  29:VeryLongModular.cpp **** {
 676              		.loc 1 29 1 view .LVU149
 677 0112 4889FB   		movq	%rdi, %rbx
 678              	.LBB485:
 679              		.loc 1 31 12 view .LVU150
 680 0115 4C89E7   		movq	%r12, %rdi
 681              	.LVL49:
 682              		.loc 1 31 12 view .LVU151
 683 0118 E8000000 		call	__gmpz_set@PLT
 683      00
 684              	.LVL50:
  32:VeryLongModular.cpp ****     mpz_init_set_str(vl_, s, 10);
 685              		.loc 1 32 5 is_stmt 1 view .LVU152
 686              		.loc 1 32 21 is_stmt 0 view .LVU153
 687 011d 4889EE   		movq	%rbp, %rsi
 688 0120 4889DF   		movq	%rbx, %rdi
 689 0123 BA0A0000 		movl	$10, %edx
 689      00
 690 0128 E8000000 		call	__gmpz_init_set_str@PLT
 690      00
 691              	.LVL51:
  33:VeryLongModular.cpp ****     mpz_mod(vl_, vl_, modulus_);
 692              		.loc 1 33 5 is_stmt 1 view .LVU154
GAS LISTING /tmp/cctiEWRC.s 			page 47


 693              		.loc 1 33 12 is_stmt 0 view .LVU155
 694 012d 4C89E2   		movq	%r12, %rdx
 695 0130 4889DE   		movq	%rbx, %rsi
 696 0133 4889DF   		movq	%rbx, %rdi
 697              	.LBE485:
  34:VeryLongModular.cpp **** }
 698              		.loc 1 34 1 view .LVU156
 699 0136 5B       		popq	%rbx
 700              		.cfi_def_cfa_offset 24
 701              	.LVL52:
 702              		.loc 1 34 1 view .LVU157
 703 0137 5D       		popq	%rbp
 704              		.cfi_def_cfa_offset 16
 705              	.LVL53:
 706              		.loc 1 34 1 view .LVU158
 707 0138 415C     		popq	%r12
 708              		.cfi_def_cfa_offset 8
 709              	.LBB486:
  33:VeryLongModular.cpp ****     mpz_mod(vl_, vl_, modulus_);
 710              		.loc 1 33 12 view .LVU159
 711 013a E9000000 		jmp	__gmpz_mod@PLT
 711      00
 712              	.LVL54:
  33:VeryLongModular.cpp ****     mpz_mod(vl_, vl_, modulus_);
 713              		.loc 1 33 12 view .LVU160
 714              	.LBE486:
 715              		.cfi_endproc
 716              	.LFE2580:
 717              		.size	_ZN15VeryLongModularC2ERK8VeryLongPc, .-_ZN15VeryLongModularC2ERK8VeryLongPc
 718              		.globl	_ZN15VeryLongModularC1ERK8VeryLongPc
 719              		.set	_ZN15VeryLongModularC1ERK8VeryLongPc,_ZN15VeryLongModularC2ERK8VeryLongPc
 720 013f 90       		.align 2
 721              		.p2align 4
 722              		.globl	_ZN15VeryLongModularC2ERK8VeryLongl
 723              		.type	_ZN15VeryLongModularC2ERK8VeryLongl, @function
 724              	_ZN15VeryLongModularC2ERK8VeryLongl:
 725              	.LVL55:
 726              	.LFB2583:
  35:VeryLongModular.cpp **** 
  36:VeryLongModular.cpp **** VeryLongModular::VeryLongModular(const VeryLong& modulus, long l)
 727              		.loc 1 36 1 is_stmt 1 view -0
 728              		.cfi_startproc
 729              		.loc 1 36 1 is_stmt 0 view .LVU162
 730 0140 F30F1EFA 		endbr64
 731              	.LBB487:
  37:VeryLongModular.cpp **** {
  38:VeryLongModular.cpp ****     mpz_set(modulus_, modulus.vl_);
 732              		.loc 1 38 5 is_stmt 1 view .LVU163
 733              	.LBE487:
  36:VeryLongModular.cpp **** {
 734              		.loc 1 36 1 is_stmt 0 view .LVU164
 735 0144 4154     		pushq	%r12
 736              		.cfi_def_cfa_offset 16
 737              		.cfi_offset 12, -16
 738              	.LBB488:
 739              		.loc 1 38 12 view .LVU165
 740 0146 4C8D2500 		leaq	_ZN15VeryLongModular8modulus_E(%rip), %r12
GAS LISTING /tmp/cctiEWRC.s 			page 48


 740      000000
 741              	.LBE488:
  36:VeryLongModular.cpp **** {
 742              		.loc 1 36 1 view .LVU166
 743 014d 55       		pushq	%rbp
 744              		.cfi_def_cfa_offset 24
 745              		.cfi_offset 6, -24
 746 014e 4889D5   		movq	%rdx, %rbp
 747 0151 53       		pushq	%rbx
 748              		.cfi_def_cfa_offset 32
 749              		.cfi_offset 3, -32
  36:VeryLongModular.cpp **** {
 750              		.loc 1 36 1 view .LVU167
 751 0152 4889FB   		movq	%rdi, %rbx
 752              	.LBB489:
 753              		.loc 1 38 12 view .LVU168
 754 0155 4C89E7   		movq	%r12, %rdi
 755              	.LVL56:
 756              		.loc 1 38 12 view .LVU169
 757 0158 E8000000 		call	__gmpz_set@PLT
 757      00
 758              	.LVL57:
  39:VeryLongModular.cpp ****     mpz_init_set_si(vl_, l);
 759              		.loc 1 39 5 is_stmt 1 view .LVU170
 760              		.loc 1 39 20 is_stmt 0 view .LVU171
 761 015d 4889EE   		movq	%rbp, %rsi
 762 0160 4889DF   		movq	%rbx, %rdi
 763 0163 E8000000 		call	__gmpz_init_set_si@PLT
 763      00
 764              	.LVL58:
  40:VeryLongModular.cpp ****     mpz_mod(vl_, vl_, modulus_);
 765              		.loc 1 40 5 is_stmt 1 view .LVU172
 766              		.loc 1 40 12 is_stmt 0 view .LVU173
 767 0168 4C89E2   		movq	%r12, %rdx
 768 016b 4889DE   		movq	%rbx, %rsi
 769 016e 4889DF   		movq	%rbx, %rdi
 770              	.LBE489:
  41:VeryLongModular.cpp **** }
 771              		.loc 1 41 1 view .LVU174
 772 0171 5B       		popq	%rbx
 773              		.cfi_def_cfa_offset 24
 774              	.LVL59:
 775              		.loc 1 41 1 view .LVU175
 776 0172 5D       		popq	%rbp
 777              		.cfi_def_cfa_offset 16
 778              	.LVL60:
 779              		.loc 1 41 1 view .LVU176
 780 0173 415C     		popq	%r12
 781              		.cfi_def_cfa_offset 8
 782              	.LBB490:
  40:VeryLongModular.cpp ****     mpz_mod(vl_, vl_, modulus_);
 783              		.loc 1 40 12 view .LVU177
 784 0175 E9000000 		jmp	__gmpz_mod@PLT
 784      00
 785              	.LVL61:
  40:VeryLongModular.cpp ****     mpz_mod(vl_, vl_, modulus_);
 786              		.loc 1 40 12 view .LVU178
GAS LISTING /tmp/cctiEWRC.s 			page 49


 787              	.LBE490:
 788              		.cfi_endproc
 789              	.LFE2583:
 790              		.size	_ZN15VeryLongModularC2ERK8VeryLongl, .-_ZN15VeryLongModularC2ERK8VeryLongl
 791              		.globl	_ZN15VeryLongModularC1ERK8VeryLongl
 792              		.set	_ZN15VeryLongModularC1ERK8VeryLongl,_ZN15VeryLongModularC2ERK8VeryLongl
 793              		.align 2
 794 017a 660F1F44 		.p2align 4
 794      0000
 795              		.globl	_ZN15VeryLongModularC2ERK8VeryLongS2_
 796              		.type	_ZN15VeryLongModularC2ERK8VeryLongS2_, @function
 797              	_ZN15VeryLongModularC2ERK8VeryLongS2_:
 798              	.LVL62:
 799              	.LFB2586:
  42:VeryLongModular.cpp **** 
  43:VeryLongModular.cpp **** VeryLongModular::VeryLongModular(const VeryLong& modulus, const VeryLong& vl)
 800              		.loc 1 43 1 is_stmt 1 view -0
 801              		.cfi_startproc
 802              		.loc 1 43 1 is_stmt 0 view .LVU180
 803 0180 F30F1EFA 		endbr64
 804              	.LBB491:
  44:VeryLongModular.cpp **** {
  45:VeryLongModular.cpp ****     mpz_set(modulus_, modulus.vl_);
 805              		.loc 1 45 5 is_stmt 1 view .LVU181
 806              	.LBE491:
  43:VeryLongModular.cpp **** {
 807              		.loc 1 43 1 is_stmt 0 view .LVU182
 808 0184 4154     		pushq	%r12
 809              		.cfi_def_cfa_offset 16
 810              		.cfi_offset 12, -16
 811              	.LBB492:
 812              		.loc 1 45 12 view .LVU183
 813 0186 4C8D2500 		leaq	_ZN15VeryLongModular8modulus_E(%rip), %r12
 813      000000
 814              	.LBE492:
  43:VeryLongModular.cpp **** {
 815              		.loc 1 43 1 view .LVU184
 816 018d 55       		pushq	%rbp
 817              		.cfi_def_cfa_offset 24
 818              		.cfi_offset 6, -24
 819 018e 4889D5   		movq	%rdx, %rbp
 820 0191 53       		pushq	%rbx
 821              		.cfi_def_cfa_offset 32
 822              		.cfi_offset 3, -32
  43:VeryLongModular.cpp **** {
 823              		.loc 1 43 1 view .LVU185
 824 0192 4889FB   		movq	%rdi, %rbx
 825              	.LBB493:
 826              		.loc 1 45 12 view .LVU186
 827 0195 4C89E7   		movq	%r12, %rdi
 828              	.LVL63:
 829              		.loc 1 45 12 view .LVU187
 830 0198 E8000000 		call	__gmpz_set@PLT
 830      00
 831              	.LVL64:
  46:VeryLongModular.cpp ****     mpz_init_set(vl_, vl.vl_);
 832              		.loc 1 46 5 is_stmt 1 view .LVU188
GAS LISTING /tmp/cctiEWRC.s 			page 50


 833              		.loc 1 46 17 is_stmt 0 view .LVU189
 834 019d 4889EE   		movq	%rbp, %rsi
 835 01a0 4889DF   		movq	%rbx, %rdi
 836 01a3 E8000000 		call	__gmpz_init_set@PLT
 836      00
 837              	.LVL65:
  47:VeryLongModular.cpp ****     mpz_mod(vl_, vl_, modulus_);
 838              		.loc 1 47 5 is_stmt 1 view .LVU190
 839              		.loc 1 47 12 is_stmt 0 view .LVU191
 840 01a8 4C89E2   		movq	%r12, %rdx
 841 01ab 4889DE   		movq	%rbx, %rsi
 842 01ae 4889DF   		movq	%rbx, %rdi
 843              	.LBE493:
  48:VeryLongModular.cpp **** }
 844              		.loc 1 48 1 view .LVU192
 845 01b1 5B       		popq	%rbx
 846              		.cfi_def_cfa_offset 24
 847              	.LVL66:
 848              		.loc 1 48 1 view .LVU193
 849 01b2 5D       		popq	%rbp
 850              		.cfi_def_cfa_offset 16
 851              	.LVL67:
 852              		.loc 1 48 1 view .LVU194
 853 01b3 415C     		popq	%r12
 854              		.cfi_def_cfa_offset 8
 855              	.LBB494:
  47:VeryLongModular.cpp ****     mpz_mod(vl_, vl_, modulus_);
 856              		.loc 1 47 12 view .LVU195
 857 01b5 E9000000 		jmp	__gmpz_mod@PLT
 857      00
 858              	.LVL68:
  47:VeryLongModular.cpp ****     mpz_mod(vl_, vl_, modulus_);
 859              		.loc 1 47 12 view .LVU196
 860              	.LBE494:
 861              		.cfi_endproc
 862              	.LFE2586:
 863              		.size	_ZN15VeryLongModularC2ERK8VeryLongS2_, .-_ZN15VeryLongModularC2ERK8VeryLongS2_
 864              		.globl	_ZN15VeryLongModularC1ERK8VeryLongS2_
 865              		.set	_ZN15VeryLongModularC1ERK8VeryLongS2_,_ZN15VeryLongModularC2ERK8VeryLongS2_
 866              		.align 2
 867 01ba 660F1F44 		.p2align 4
 867      0000
 868              		.globl	_ZN15VeryLongModularC2El
 869              		.type	_ZN15VeryLongModularC2El, @function
 870              	_ZN15VeryLongModularC2El:
 871              	.LVL69:
 872              	.LFB2589:
  49:VeryLongModular.cpp **** 
  50:VeryLongModular.cpp **** VeryLongModular::VeryLongModular(const long int li)
 873              		.loc 1 50 1 is_stmt 1 view -0
 874              		.cfi_startproc
 875              		.loc 1 50 1 is_stmt 0 view .LVU198
 876 01c0 F30F1EFA 		endbr64
 877              	.LBB499:
  51:VeryLongModular.cpp **** {
  52:VeryLongModular.cpp ****     staticInit();
 878              		.loc 1 52 5 is_stmt 1 view .LVU199
GAS LISTING /tmp/cctiEWRC.s 			page 51


 879              	.LBB500:
 880              	.LBI500:
  92:VeryLongModular.h ****     {
 881              		.loc 8 92 17 view .LVU200
 882              	.LBB501:
  94:VeryLongModular.h ****         {
 883              		.loc 8 94 9 view .LVU201
 884 01c4 8B050000 		movl	_ZN15VeryLongModular14staticInitDoneE(%rip), %eax
 884      0000
 885              	.LBE501:
 886              	.LBE500:
 887              	.LBE499:
  50:VeryLongModular.cpp **** {
 888              		.loc 1 50 1 is_stmt 0 view .LVU202
 889 01ca 4154     		pushq	%r12
 890              		.cfi_def_cfa_offset 16
 891              		.cfi_offset 12, -16
 892 01cc 4C8D2500 		leaq	_ZN15VeryLongModular8modulus_E(%rip), %r12
 892      000000
 893 01d3 55       		pushq	%rbp
 894              		.cfi_def_cfa_offset 24
 895              		.cfi_offset 6, -24
 896 01d4 4889F5   		movq	%rsi, %rbp
 897 01d7 53       		pushq	%rbx
 898              		.cfi_def_cfa_offset 32
 899              		.cfi_offset 3, -32
  50:VeryLongModular.cpp **** {
 900              		.loc 1 50 1 view .LVU203
 901 01d8 4889FB   		movq	%rdi, %rbx
 902              	.LBB506:
 903              	.LBB504:
 904              	.LBB502:
  94:VeryLongModular.h ****         {
 905              		.loc 8 94 9 view .LVU204
 906 01db 85C0     		testl	%eax, %eax
 907 01dd 7421     		je	.L38
 908              	.LVL70:
 909              	.L35:
  94:VeryLongModular.h ****         {
 910              		.loc 8 94 9 view .LVU205
 911              	.LBE502:
 912              	.LBE504:
  53:VeryLongModular.cpp ****     mpz_init_set_si(vl_, li);
 913              		.loc 1 53 5 is_stmt 1 view .LVU206
 914              		.loc 1 53 20 is_stmt 0 view .LVU207
 915 01df 4889EE   		movq	%rbp, %rsi
 916 01e2 4889DF   		movq	%rbx, %rdi
 917 01e5 E8000000 		call	__gmpz_init_set_si@PLT
 917      00
 918              	.LVL71:
  54:VeryLongModular.cpp ****     mpz_mod(vl_, vl_, modulus_);
 919              		.loc 1 54 5 is_stmt 1 view .LVU208
 920              		.loc 1 54 12 is_stmt 0 view .LVU209
 921 01ea 4C89E2   		movq	%r12, %rdx
 922 01ed 4889DE   		movq	%rbx, %rsi
 923 01f0 4889DF   		movq	%rbx, %rdi
 924              	.LBE506:
GAS LISTING /tmp/cctiEWRC.s 			page 52


  55:VeryLongModular.cpp **** }
 925              		.loc 1 55 1 view .LVU210
 926 01f3 5B       		popq	%rbx
 927              		.cfi_remember_state
 928              		.cfi_def_cfa_offset 24
 929              	.LVL72:
 930              		.loc 1 55 1 view .LVU211
 931 01f4 5D       		popq	%rbp
 932              		.cfi_def_cfa_offset 16
 933              	.LVL73:
 934              		.loc 1 55 1 view .LVU212
 935 01f5 415C     		popq	%r12
 936              		.cfi_def_cfa_offset 8
 937              	.LBB507:
  54:VeryLongModular.cpp ****     mpz_mod(vl_, vl_, modulus_);
 938              		.loc 1 54 12 view .LVU213
 939 01f7 E9000000 		jmp	__gmpz_mod@PLT
 939      00
 940              	.LVL74:
 941 01fc 0F1F4000 		.p2align 4,,10
 942              		.p2align 3
 943              	.L38:
 944              		.cfi_restore_state
 945              	.LBB505:
 946              	.LBB503:
  96:VeryLongModular.h ****             mpz_set_ui(modulus_, 1L);
 947              		.loc 8 96 13 is_stmt 1 view .LVU214
  96:VeryLongModular.h ****             mpz_set_ui(modulus_, 1L);
 948              		.loc 8 96 21 is_stmt 0 view .LVU215
 949 0200 4C89E7   		movq	%r12, %rdi
 950 0203 E8000000 		call	__gmpz_init@PLT
 950      00
 951              	.LVL75:
  97:VeryLongModular.h ****             staticInitDone = 1;
 952              		.loc 8 97 13 is_stmt 1 view .LVU216
  97:VeryLongModular.h ****             staticInitDone = 1;
 953              		.loc 8 97 23 is_stmt 0 view .LVU217
 954 0208 BE010000 		movl	$1, %esi
 954      00
 955 020d 4C89E7   		movq	%r12, %rdi
 956 0210 E8000000 		call	__gmpz_set_ui@PLT
 956      00
 957              	.LVL76:
 958              		.loc 8 98 13 is_stmt 1 view .LVU218
 959              		.loc 8 98 28 is_stmt 0 view .LVU219
 960 0215 C7050000 		movl	$1, _ZN15VeryLongModular14staticInitDoneE(%rip)
 960      00000100 
 960      0000
 961 021f EBBE     		jmp	.L35
 962              	.LBE503:
 963              	.LBE505:
 964              	.LBE507:
 965              		.cfi_endproc
 966              	.LFE2589:
 967              		.size	_ZN15VeryLongModularC2El, .-_ZN15VeryLongModularC2El
 968              		.globl	_ZN15VeryLongModularC1El
 969              		.set	_ZN15VeryLongModularC1El,_ZN15VeryLongModularC2El
GAS LISTING /tmp/cctiEWRC.s 			page 53


 970 0221 90       		.align 2
 971 0222 66662E0F 		.p2align 4
 971      1F840000 
 971      0000000F 
 971      1F00
 972              		.globl	_ZN15VeryLongModularC2Ex
 973              		.type	_ZN15VeryLongModularC2Ex, @function
 974              	_ZN15VeryLongModularC2Ex:
 975              	.LVL77:
 976              	.LFB2592:
  56:VeryLongModular.cpp **** 
  57:VeryLongModular.cpp **** VeryLongModular::VeryLongModular(const long long int lli)
 977              		.loc 1 57 1 is_stmt 1 view -0
 978              		.cfi_startproc
 979              		.loc 1 57 1 is_stmt 0 view .LVU221
 980 0230 F30F1EFA 		endbr64
 981              	.LBB511:
  58:VeryLongModular.cpp **** {
  59:VeryLongModular.cpp ****     staticInit();
 982              		.loc 1 59 5 is_stmt 1 view .LVU222
 983              	.LBB512:
 984              	.LBI512:
  92:VeryLongModular.h ****     {
 985              		.loc 8 92 17 view .LVU223
 986              	.LBB513:
  94:VeryLongModular.h ****         {
 987              		.loc 8 94 9 view .LVU224
 988              	.LBE513:
 989              	.LBE512:
 990              	.LBE511:
  57:VeryLongModular.cpp **** {
 991              		.loc 1 57 1 is_stmt 0 view .LVU225
 992 0234 4155     		pushq	%r13
 993              		.cfi_def_cfa_offset 16
 994              		.cfi_offset 13, -16
 995 0236 4C8D2D00 		leaq	_ZN15VeryLongModular8modulus_E(%rip), %r13
 995      000000
 996 023d 4154     		pushq	%r12
 997              		.cfi_def_cfa_offset 24
 998              		.cfi_offset 12, -24
 999 023f 55       		pushq	%rbp
 1000              		.cfi_def_cfa_offset 32
 1001              		.cfi_offset 6, -32
 1002 0240 4889F5   		movq	%rsi, %rbp
 1003 0243 53       		pushq	%rbx
 1004              		.cfi_def_cfa_offset 40
 1005              		.cfi_offset 3, -40
 1006 0244 4889FB   		movq	%rdi, %rbx
 1007 0247 4883EC08 		subq	$8, %rsp
 1008              		.cfi_def_cfa_offset 48
 1009              	.LBB518:
 1010              	.LBB516:
 1011              	.LBB514:
  94:VeryLongModular.h ****         {
 1012              		.loc 8 94 9 view .LVU226
 1013 024b 8B050000 		movl	_ZN15VeryLongModular14staticInitDoneE(%rip), %eax
 1013      0000
GAS LISTING /tmp/cctiEWRC.s 			page 54


 1014 0251 85C0     		testl	%eax, %eax
 1015 0253 745B     		je	.L44
 1016              	.LVL78:
 1017              	.L40:
  94:VeryLongModular.h ****         {
 1018              		.loc 8 94 9 view .LVU227
 1019              	.LBE514:
 1020              	.LBE516:
  60:VeryLongModular.cpp ****     long long int num = lli;
 1021              		.loc 1 60 5 is_stmt 1 view .LVU228
  61:VeryLongModular.cpp ****     if (lli < 0) num = -num;
 1022              		.loc 1 61 5 view .LVU229
 1023 0255 4989EC   		movq	%rbp, %r12
  62:VeryLongModular.cpp ****     unsigned long int q = (unsigned long int)(num >> 32);
  63:VeryLongModular.cpp ****     unsigned long int r = (unsigned long int)(num & 0x00000000ffffffff);
  64:VeryLongModular.cpp ****     mpz_init_set_ui(vl_, q);
 1024              		.loc 1 64 20 is_stmt 0 view .LVU230
 1025 0258 4889DF   		movq	%rbx, %rdi
  61:VeryLongModular.cpp ****     if (lli < 0) num = -num;
 1026              		.loc 1 61 5 view .LVU231
 1027 025b 49F7DC   		negq	%r12
 1028 025e 4C0F48E5 		cmovs	%rbp, %r12
 1029              	.LVL79:
  62:VeryLongModular.cpp ****     unsigned long int q = (unsigned long int)(num >> 32);
 1030              		.loc 1 62 5 is_stmt 1 view .LVU232
  63:VeryLongModular.cpp ****     mpz_init_set_ui(vl_, q);
 1031              		.loc 1 63 5 view .LVU233
 1032              		.loc 1 64 5 view .LVU234
  62:VeryLongModular.cpp ****     unsigned long int q = (unsigned long int)(num >> 32);
 1033              		.loc 1 62 51 is_stmt 0 view .LVU235
 1034 0262 4C89E6   		movq	%r12, %rsi
 1035 0265 48C1FE20 		sarq	$32, %rsi
 1036              	.LVL80:
 1037              		.loc 1 64 20 view .LVU236
 1038 0269 E8000000 		call	__gmpz_init_set_ui@PLT
 1038      00
 1039              	.LVL81:
  65:VeryLongModular.cpp ****     mpz_mul_2exp(vl_, vl_, 32);
 1040              		.loc 1 65 5 is_stmt 1 view .LVU237
 1041              		.loc 1 65 17 is_stmt 0 view .LVU238
 1042 026e BA200000 		movl	$32, %edx
 1042      00
 1043 0273 4889DE   		movq	%rbx, %rsi
 1044 0276 4889DF   		movq	%rbx, %rdi
 1045 0279 E8000000 		call	__gmpz_mul_2exp@PLT
 1045      00
 1046              	.LVL82:
  66:VeryLongModular.cpp ****     mpz_add_ui(vl_, vl_, r);
 1047              		.loc 1 66 5 is_stmt 1 view .LVU239
  63:VeryLongModular.cpp ****     mpz_init_set_ui(vl_, q);
 1048              		.loc 1 63 23 is_stmt 0 view .LVU240
 1049 027e 4489E2   		movl	%r12d, %edx
 1050              		.loc 1 66 15 view .LVU241
 1051 0281 4889DE   		movq	%rbx, %rsi
 1052 0284 4889DF   		movq	%rbx, %rdi
 1053 0287 E8000000 		call	__gmpz_add_ui@PLT
 1053      00
GAS LISTING /tmp/cctiEWRC.s 			page 55


 1054              	.LVL83:
  67:VeryLongModular.cpp ****     mpz_mod(vl_, vl_, modulus_);
 1055              		.loc 1 67 5 is_stmt 1 view .LVU242
 1056              		.loc 1 67 12 is_stmt 0 view .LVU243
 1057 028c 4C89EA   		movq	%r13, %rdx
 1058 028f 4889DE   		movq	%rbx, %rsi
 1059 0292 4889DF   		movq	%rbx, %rdi
 1060 0295 E8000000 		call	__gmpz_mod@PLT
 1060      00
 1061              	.LVL84:
  68:VeryLongModular.cpp ****     if (lli < 0)
 1062              		.loc 1 68 5 is_stmt 1 view .LVU244
 1063 029a 4885ED   		testq	%rbp, %rbp
 1064 029d 7839     		js	.L45
 1065              	.LBE518:
  69:VeryLongModular.cpp ****     {
  70:VeryLongModular.cpp ****         mpz_sub(vl_, modulus_, vl_);
  71:VeryLongModular.cpp ****     }
  72:VeryLongModular.cpp **** }
 1066              		.loc 1 72 1 is_stmt 0 view .LVU245
 1067 029f 4883C408 		addq	$8, %rsp
 1068              		.cfi_remember_state
 1069              		.cfi_def_cfa_offset 40
 1070 02a3 5B       		popq	%rbx
 1071              		.cfi_def_cfa_offset 32
 1072              	.LVL85:
 1073              		.loc 1 72 1 view .LVU246
 1074 02a4 5D       		popq	%rbp
 1075              		.cfi_def_cfa_offset 24
 1076              	.LVL86:
 1077              		.loc 1 72 1 view .LVU247
 1078 02a5 415C     		popq	%r12
 1079              		.cfi_def_cfa_offset 16
 1080              	.LVL87:
 1081              		.loc 1 72 1 view .LVU248
 1082 02a7 415D     		popq	%r13
 1083              		.cfi_def_cfa_offset 8
 1084 02a9 C3       		ret
 1085              	.LVL88:
 1086 02aa 660F1F44 		.p2align 4,,10
 1086      0000
 1087              		.p2align 3
 1088              	.L44:
 1089              		.cfi_restore_state
 1090              	.LBB519:
 1091              	.LBB517:
 1092              	.LBB515:
  96:VeryLongModular.h ****             mpz_set_ui(modulus_, 1L);
 1093              		.loc 8 96 13 is_stmt 1 view .LVU249
  96:VeryLongModular.h ****             mpz_set_ui(modulus_, 1L);
 1094              		.loc 8 96 21 is_stmt 0 view .LVU250
 1095 02b0 4C89EF   		movq	%r13, %rdi
 1096 02b3 E8000000 		call	__gmpz_init@PLT
 1096      00
 1097              	.LVL89:
  97:VeryLongModular.h ****             staticInitDone = 1;
 1098              		.loc 8 97 13 is_stmt 1 view .LVU251
GAS LISTING /tmp/cctiEWRC.s 			page 56


  97:VeryLongModular.h ****             staticInitDone = 1;
 1099              		.loc 8 97 23 is_stmt 0 view .LVU252
 1100 02b8 BE010000 		movl	$1, %esi
 1100      00
 1101 02bd 4C89EF   		movq	%r13, %rdi
 1102 02c0 E8000000 		call	__gmpz_set_ui@PLT
 1102      00
 1103              	.LVL90:
 1104              		.loc 8 98 13 is_stmt 1 view .LVU253
 1105              		.loc 8 98 28 is_stmt 0 view .LVU254
 1106 02c5 C7050000 		movl	$1, _ZN15VeryLongModular14staticInitDoneE(%rip)
 1106      00000100 
 1106      0000
 1107 02cf EB84     		jmp	.L40
 1108              	.LVL91:
 1109              		.p2align 4,,10
 1110 02d1 0F1F8000 		.p2align 3
 1110      000000
 1111              	.L45:
 1112              		.loc 8 98 28 view .LVU255
 1113              	.LBE515:
 1114              	.LBE517:
  70:VeryLongModular.cpp ****     }
 1115              		.loc 1 70 9 is_stmt 1 view .LVU256
 1116              	.LBE519:
 1117              		.loc 1 72 1 is_stmt 0 view .LVU257
 1118 02d8 4883C408 		addq	$8, %rsp
 1119              		.cfi_def_cfa_offset 40
 1120              	.LBB520:
  70:VeryLongModular.cpp ****     }
 1121              		.loc 1 70 16 view .LVU258
 1122 02dc 4889DA   		movq	%rbx, %rdx
 1123 02df 4C89EE   		movq	%r13, %rsi
 1124 02e2 4889DF   		movq	%rbx, %rdi
 1125              	.LBE520:
 1126              		.loc 1 72 1 view .LVU259
 1127 02e5 5B       		popq	%rbx
 1128              		.cfi_def_cfa_offset 32
 1129              	.LVL92:
 1130              		.loc 1 72 1 view .LVU260
 1131 02e6 5D       		popq	%rbp
 1132              		.cfi_def_cfa_offset 24
 1133              	.LVL93:
 1134              		.loc 1 72 1 view .LVU261
 1135 02e7 415C     		popq	%r12
 1136              		.cfi_def_cfa_offset 16
 1137              	.LVL94:
 1138              		.loc 1 72 1 view .LVU262
 1139 02e9 415D     		popq	%r13
 1140              		.cfi_def_cfa_offset 8
 1141              	.LBB521:
  70:VeryLongModular.cpp ****     }
 1142              		.loc 1 70 16 view .LVU263
 1143 02eb E9000000 		jmp	__gmpz_sub@PLT
 1143      00
 1144              	.LVL95:
  70:VeryLongModular.cpp ****     }
GAS LISTING /tmp/cctiEWRC.s 			page 57


 1145              		.loc 1 70 16 view .LVU264
 1146              	.LBE521:
 1147              		.cfi_endproc
 1148              	.LFE2592:
 1149              		.size	_ZN15VeryLongModularC2Ex, .-_ZN15VeryLongModularC2Ex
 1150              		.globl	_ZN15VeryLongModularC1Ex
 1151              		.set	_ZN15VeryLongModularC1Ex,_ZN15VeryLongModularC2Ex
 1152              		.align 2
 1153              		.p2align 4
 1154              		.globl	_ZNK15VeryLongModulareqERKS_
 1155              		.type	_ZNK15VeryLongModulareqERKS_, @function
 1156              	_ZNK15VeryLongModulareqERKS_:
 1157              	.LVL96:
 1158              	.LFB2594:
  73:VeryLongModular.cpp **** 
  74:VeryLongModular.cpp **** int VeryLongModular::operator== (const VeryLongModular& vl) const
  75:VeryLongModular.cpp **** {
 1159              		.loc 1 75 1 is_stmt 1 view -0
 1160              		.cfi_startproc
 1161              		.loc 1 75 1 is_stmt 0 view .LVU266
 1162 02f0 F30F1EFA 		endbr64
  76:VeryLongModular.cpp ****     return (mpz_cmp(vl_, vl.vl_) == 0);
 1163              		.loc 1 76 5 is_stmt 1 view .LVU267
  75:VeryLongModular.cpp ****     return (mpz_cmp(vl_, vl.vl_) == 0);
 1164              		.loc 1 75 1 is_stmt 0 view .LVU268
 1165 02f4 4883EC08 		subq	$8, %rsp
 1166              		.cfi_def_cfa_offset 16
 1167              		.loc 1 76 20 view .LVU269
 1168 02f8 E8000000 		call	__gmpz_cmp@PLT
 1168      00
 1169              	.LVL97:
 1170              		.loc 1 76 34 discriminator 1 view .LVU270
 1171 02fd 85C0     		testl	%eax, %eax
 1172 02ff 0F94C0   		sete	%al
  77:VeryLongModular.cpp **** }
 1173              		.loc 1 77 1 view .LVU271
 1174 0302 4883C408 		addq	$8, %rsp
 1175              		.cfi_def_cfa_offset 8
  76:VeryLongModular.cpp ****     return (mpz_cmp(vl_, vl.vl_) == 0);
 1176              		.loc 1 76 34 discriminator 1 view .LVU272
 1177 0306 0FB6C0   		movzbl	%al, %eax
 1178              		.loc 1 77 1 view .LVU273
 1179 0309 C3       		ret
 1180              		.cfi_endproc
 1181              	.LFE2594:
 1182              		.size	_ZNK15VeryLongModulareqERKS_, .-_ZNK15VeryLongModulareqERKS_
 1183              		.align 2
 1184 030a 660F1F44 		.p2align 4
 1184      0000
 1185              		.globl	_ZNK15VeryLongModular7is_zeroEv
 1186              		.type	_ZNK15VeryLongModular7is_zeroEv, @function
 1187              	_ZNK15VeryLongModular7is_zeroEv:
 1188              	.LVL98:
 1189              	.LFB2595:
  78:VeryLongModular.cpp **** 
  79:VeryLongModular.cpp **** int VeryLongModular::is_zero() const
  80:VeryLongModular.cpp **** {
GAS LISTING /tmp/cctiEWRC.s 			page 58


 1190              		.loc 1 80 1 is_stmt 1 view -0
 1191              		.cfi_startproc
 1192              		.loc 1 80 1 is_stmt 0 view .LVU275
 1193 0310 F30F1EFA 		endbr64
  81:VeryLongModular.cpp ****     return (mpz_sgn(vl_) == 0);
 1194              		.loc 1 81 5 is_stmt 1 view .LVU276
 1195              		.loc 1 81 26 is_stmt 0 view .LVU277
 1196 0314 8B5704   		movl	4(%rdi), %edx
 1197 0317 31C0     		xorl	%eax, %eax
 1198 0319 85D2     		testl	%edx, %edx
 1199 031b 0F94C0   		sete	%al
  82:VeryLongModular.cpp **** }
 1200              		.loc 1 82 1 view .LVU278
 1201 031e C3       		ret
 1202              		.cfi_endproc
 1203              	.LFE2595:
 1204              		.size	_ZNK15VeryLongModular7is_zeroEv, .-_ZNK15VeryLongModular7is_zeroEv
 1205 031f 90       		.align 2
 1206              		.p2align 4
 1207              		.globl	_ZNK15VeryLongModular6is_oneEv
 1208              		.type	_ZNK15VeryLongModular6is_oneEv, @function
 1209              	_ZNK15VeryLongModular6is_oneEv:
 1210              	.LVL99:
 1211              	.LFB2596:
  83:VeryLongModular.cpp **** 
  84:VeryLongModular.cpp **** int VeryLongModular::is_one() const
  85:VeryLongModular.cpp **** {
 1212              		.loc 1 85 1 is_stmt 1 view -0
 1213              		.cfi_startproc
 1214              		.cfi_personality 0x9b,DW.ref.__gxx_personality_v0
 1215              		.cfi_lsda 0x1b,.LLSDA2596
 1216              		.loc 1 85 1 is_stmt 0 view .LVU280
 1217 0320 F30F1EFA 		endbr64
 1218 0324 4154     		pushq	%r12
 1219              		.cfi_def_cfa_offset 16
 1220              		.cfi_offset 12, -16
 1221 0326 4C8D2500 		leaq	_ZN15VeryLongModular8modulus_E(%rip), %r12
 1221      000000
 1222 032d 55       		pushq	%rbp
 1223              		.cfi_def_cfa_offset 24
 1224              		.cfi_offset 6, -24
 1225 032e 4889FD   		movq	%rdi, %rbp
 1226 0331 53       		pushq	%rbx
 1227              		.cfi_def_cfa_offset 32
 1228              		.cfi_offset 3, -32
 1229 0332 4883EC20 		subq	$32, %rsp
 1230              		.cfi_def_cfa_offset 64
 1231              		.loc 1 85 1 view .LVU281
 1232 0336 64488B04 		movq	%fs:40, %rax
 1232      25280000 
 1232      00
 1233 033f 48894424 		movq	%rax, 24(%rsp)
 1233      18
 1234 0344 31C0     		xorl	%eax, %eax
  86:VeryLongModular.cpp ****     const VeryLongModular one(1L);
 1235              		.loc 1 86 5 is_stmt 1 view .LVU282
 1236              	.LVL100:
GAS LISTING /tmp/cctiEWRC.s 			page 59


 1237              	.LBB531:
 1238              	.LBI531:
  50:VeryLongModular.cpp **** {
 1239              		.loc 1 50 1 view .LVU283
 1240              	.LBB532:
 1241              	.LBB533:
  52:VeryLongModular.cpp ****     mpz_init_set_si(vl_, li);
 1242              		.loc 1 52 5 view .LVU284
 1243              	.LBB534:
 1244              	.LBI534:
  92:VeryLongModular.h ****     {
 1245              		.loc 8 92 17 view .LVU285
 1246              	.LBB535:
  94:VeryLongModular.h ****         {
 1247              		.loc 8 94 9 view .LVU286
 1248 0346 8B050000 		movl	_ZN15VeryLongModular14staticInitDoneE(%rip), %eax
 1248      0000
 1249 034c 85C0     		testl	%eax, %eax
 1250 034e 7458     		je	.L54
 1251              	.LVL101:
 1252              	.L50:
  94:VeryLongModular.h ****         {
 1253              		.loc 8 94 9 is_stmt 0 view .LVU287
 1254              	.LBE535:
 1255              	.LBE534:
  53:VeryLongModular.cpp ****     mpz_mod(vl_, vl_, modulus_);
 1256              		.loc 1 53 5 is_stmt 1 view .LVU288
  53:VeryLongModular.cpp ****     mpz_mod(vl_, vl_, modulus_);
 1257              		.loc 1 53 20 is_stmt 0 view .LVU289
 1258 0350 4889E3   		movq	%rsp, %rbx
 1259              	.LVL102:
  53:VeryLongModular.cpp ****     mpz_mod(vl_, vl_, modulus_);
 1260              		.loc 1 53 20 view .LVU290
 1261 0353 BE010000 		movl	$1, %esi
 1261      00
 1262 0358 4889DF   		movq	%rbx, %rdi
 1263              	.LEHB0:
 1264 035b E8000000 		call	__gmpz_init_set_si@PLT
 1264      00
 1265              	.LVL103:
  54:VeryLongModular.cpp **** }
 1266              		.loc 1 54 5 is_stmt 1 view .LVU291
  54:VeryLongModular.cpp **** }
 1267              		.loc 1 54 12 is_stmt 0 view .LVU292
 1268 0360 4C89E2   		movq	%r12, %rdx
 1269 0363 4889DE   		movq	%rbx, %rsi
 1270 0366 4889DF   		movq	%rbx, %rdi
 1271 0369 E8000000 		call	__gmpz_mod@PLT
 1271      00
 1272              	.LVL104:
 1273              	.LEHE0:
  54:VeryLongModular.cpp **** }
 1274              		.loc 1 54 12 view .LVU293
 1275              	.LBE533:
 1276              	.LBE532:
 1277              	.LBE531:
  87:VeryLongModular.cpp ****     return (*this == one);
GAS LISTING /tmp/cctiEWRC.s 			page 60


 1278              		.loc 1 87 5 is_stmt 1 view .LVU294
 1279              	.LBB540:
 1280              	.LBI540:
  74:VeryLongModular.cpp **** {
 1281              		.loc 1 74 5 view .LVU295
 1282              	.LBB541:
  76:VeryLongModular.cpp **** }
 1283              		.loc 1 76 5 view .LVU296
  76:VeryLongModular.cpp **** }
 1284              		.loc 1 76 20 is_stmt 0 view .LVU297
 1285 036e 4889EF   		movq	%rbp, %rdi
 1286 0371 4889DE   		movq	%rbx, %rsi
 1287 0374 E8000000 		call	__gmpz_cmp@PLT
 1287      00
 1288              	.LVL105:
 1289              	.LBE541:
 1290              	.LBE540:
 1291              	.LBB544:
 1292              	.LBB545:
  14:VeryLongModular.cpp **** }
 1293              		.loc 1 14 14 view .LVU298
 1294 0379 4889DF   		movq	%rbx, %rdi
 1295              	.LBE545:
 1296              	.LBE544:
 1297              	.LBB547:
 1298              	.LBB542:
  76:VeryLongModular.cpp **** }
 1299              		.loc 1 76 20 view .LVU299
 1300 037c 89C5     		movl	%eax, %ebp
 1301              	.LVL106:
  76:VeryLongModular.cpp **** }
 1302              		.loc 1 76 20 view .LVU300
 1303              	.LBE542:
 1304              	.LBE547:
 1305              	.LBB548:
 1306              	.LBI544:
  12:VeryLongModular.cpp **** {
 1307              		.loc 1 12 1 is_stmt 1 view .LVU301
 1308              	.LBB546:
  14:VeryLongModular.cpp **** }
 1309              		.loc 1 14 5 view .LVU302
  14:VeryLongModular.cpp **** }
 1310              		.loc 1 14 14 is_stmt 0 view .LVU303
 1311 037e E8000000 		call	__gmpz_clear@PLT
 1311      00
 1312              	.LVL107:
  14:VeryLongModular.cpp **** }
 1313              		.loc 1 14 14 view .LVU304
 1314              	.LBE546:
 1315              	.LBE548:
 1316              	.LBB549:
 1317              	.LBB543:
  76:VeryLongModular.cpp **** }
 1318              		.loc 1 76 34 discriminator 1 view .LVU305
 1319 0383 31C0     		xorl	%eax, %eax
 1320 0385 85ED     		testl	%ebp, %ebp
 1321 0387 0F94C0   		sete	%al
GAS LISTING /tmp/cctiEWRC.s 			page 61


 1322              	.LBE543:
 1323              	.LBE549:
  88:VeryLongModular.cpp **** }
 1324              		.loc 1 88 1 view .LVU306
 1325 038a 488B5424 		movq	24(%rsp), %rdx
 1325      18
 1326 038f 64482B14 		subq	%fs:40, %rdx
 1326      25280000 
 1326      00
 1327 0398 752F     		jne	.L55
 1328 039a 4883C420 		addq	$32, %rsp
 1329              		.cfi_remember_state
 1330              		.cfi_def_cfa_offset 32
 1331 039e 5B       		popq	%rbx
 1332              		.cfi_def_cfa_offset 24
 1333 039f 5D       		popq	%rbp
 1334              		.cfi_def_cfa_offset 16
 1335 03a0 415C     		popq	%r12
 1336              		.cfi_def_cfa_offset 8
 1337 03a2 C3       		ret
 1338              	.LVL108:
 1339              		.p2align 4,,10
 1340 03a3 0F1F4400 		.p2align 3
 1340      00
 1341              	.L54:
 1342              		.cfi_restore_state
 1343              	.LBB550:
 1344              	.LBB539:
 1345              	.LBB538:
 1346              	.LBB537:
 1347              	.LBB536:
  96:VeryLongModular.h ****             mpz_set_ui(modulus_, 1L);
 1348              		.loc 8 96 13 is_stmt 1 view .LVU307
  96:VeryLongModular.h ****             mpz_set_ui(modulus_, 1L);
 1349              		.loc 8 96 21 is_stmt 0 view .LVU308
 1350 03a8 4C89E7   		movq	%r12, %rdi
 1351              	.LVL109:
  96:VeryLongModular.h ****             mpz_set_ui(modulus_, 1L);
 1352              		.loc 8 96 21 view .LVU309
 1353 03ab E8000000 		call	__gmpz_init@PLT
 1353      00
 1354              	.LVL110:
  97:VeryLongModular.h ****             staticInitDone = 1;
 1355              		.loc 8 97 13 is_stmt 1 view .LVU310
  97:VeryLongModular.h ****             staticInitDone = 1;
 1356              		.loc 8 97 23 is_stmt 0 view .LVU311
 1357 03b0 BE010000 		movl	$1, %esi
 1357      00
 1358 03b5 4C89E7   		movq	%r12, %rdi
 1359              	.LEHB1:
 1360 03b8 E8000000 		call	__gmpz_set_ui@PLT
 1360      00
 1361              	.LVL111:
 1362              	.LEHE1:
 1363              		.loc 8 98 13 is_stmt 1 view .LVU312
 1364              		.loc 8 98 28 is_stmt 0 view .LVU313
 1365 03bd C7050000 		movl	$1, _ZN15VeryLongModular14staticInitDoneE(%rip)
GAS LISTING /tmp/cctiEWRC.s 			page 62


 1365      00000100 
 1365      0000
 1366 03c7 EB87     		jmp	.L50
 1367              	.LVL112:
 1368              	.L55:
 1369              		.loc 8 98 28 view .LVU314
 1370              	.LBE536:
 1371              	.LBE537:
 1372              	.LBE538:
 1373              	.LBE539:
 1374              	.LBE550:
 1375              		.loc 1 88 1 view .LVU315
 1376 03c9 E8000000 		call	__stack_chk_fail@PLT
 1376      00
 1377              	.LVL113:
 1378              		.cfi_endproc
 1379              	.LFE2596:
 1380              		.section	.gcc_except_table
 1381              	.LLSDA2596:
 1382 0008 FF       		.byte	0xff
 1383 0009 FF       		.byte	0xff
 1384 000a 01       		.byte	0x1
 1385 000b 09       		.uleb128 .LLSDACSE2596-.LLSDACSB2596
 1386              	.LLSDACSB2596:
 1387 000c 3B       		.uleb128 .LEHB0-.LFB2596
 1388 000d 13       		.uleb128 .LEHE0-.LEHB0
 1389 000e 00       		.uleb128 0
 1390 000f 00       		.uleb128 0
 1391 0010 9801     		.uleb128 .LEHB1-.LFB2596
 1392 0012 05       		.uleb128 .LEHE1-.LEHB1
 1393 0013 00       		.uleb128 0
 1394 0014 00       		.uleb128 0
 1395              	.LLSDACSE2596:
 1396              		.text
 1397              		.size	_ZNK15VeryLongModular6is_oneEv, .-_ZNK15VeryLongModular6is_oneEv
 1398              		.align 2
 1399 03ce 6690     		.p2align 4
 1400              		.globl	_ZNK15VeryLongModulareqERK8VeryLong
 1401              		.type	_ZNK15VeryLongModulareqERK8VeryLong, @function
 1402              	_ZNK15VeryLongModulareqERK8VeryLong:
 1403              	.LVL114:
 1404              	.LFB2597:
  89:VeryLongModular.cpp **** 
  90:VeryLongModular.cpp **** int VeryLongModular::operator== (const VeryLong& vl) const
  91:VeryLongModular.cpp **** {
 1405              		.loc 1 91 1 is_stmt 1 view -0
 1406              		.cfi_startproc
 1407              		.loc 1 91 1 is_stmt 0 view .LVU317
 1408 03d0 F30F1EFA 		endbr64
  92:VeryLongModular.cpp ****     static VeryLong tmp;
 1409              		.loc 1 92 5 is_stmt 1 view .LVU318
  91:VeryLongModular.cpp ****     static VeryLong tmp;
 1410              		.loc 1 91 1 is_stmt 0 view .LVU319
 1411 03d4 4155     		pushq	%r13
 1412              		.cfi_def_cfa_offset 16
 1413              		.cfi_offset 13, -16
 1414 03d6 4154     		pushq	%r12
GAS LISTING /tmp/cctiEWRC.s 			page 63


 1415              		.cfi_def_cfa_offset 24
 1416              		.cfi_offset 12, -24
 1417 03d8 4989FC   		movq	%rdi, %r12
 1418 03db 55       		pushq	%rbp
 1419              		.cfi_def_cfa_offset 32
 1420              		.cfi_offset 6, -32
 1421 03dc 488D2D00 		leaq	_ZZNK15VeryLongModulareqERK8VeryLongE3tmp(%rip), %rbp
 1421      000000
 1422 03e3 53       		pushq	%rbx
 1423              		.cfi_def_cfa_offset 40
 1424              		.cfi_offset 3, -40
 1425 03e4 4889F3   		movq	%rsi, %rbx
 1426 03e7 4883EC08 		subq	$8, %rsp
 1427              		.cfi_def_cfa_offset 48
 1428              		.loc 1 92 21 view .LVU320
 1429 03eb 0FB60500 		movzbl	_ZGVZNK15VeryLongModulareqERK8VeryLongE3tmp(%rip), %eax
 1429      000000
 1430              		.loc 1 92 21 discriminator 1 view .LVU321
 1431 03f2 84C0     		testb	%al, %al
 1432 03f4 745A     		je	.L66
 1433              	.LVL115:
 1434              	.L58:
  93:VeryLongModular.cpp ****     mpz_mod(tmp.vl_, vl.vl_, modulus_);
 1435              		.loc 1 93 5 is_stmt 1 view .LVU322
 1436              		.loc 1 93 12 is_stmt 0 view .LVU323
 1437 03f6 488D1500 		leaq	_ZN15VeryLongModular8modulus_E(%rip), %rdx
 1437      000000
 1438 03fd 4889DE   		movq	%rbx, %rsi
 1439 0400 4889EF   		movq	%rbp, %rdi
 1440 0403 E8000000 		call	__gmpz_mod@PLT
 1440      00
 1441              	.LVL116:
  94:VeryLongModular.cpp ****     if (vl.is_zero())
 1442              		.loc 1 94 5 is_stmt 1 view .LVU324
 1443              	.LBB551:
 1444              	.LBI551:
  82:VeryLong.h    ****     bool operator== (const VeryLong& vl) const
  83:VeryLong.h    ****     {
  84:VeryLong.h    ****         return (mpz_cmp(vl_, vl.vl_) == 0);
  85:VeryLong.h    ****     }
  86:VeryLong.h    ****     bool operator== (long int li) const
  87:VeryLong.h    ****     {
  88:VeryLong.h    ****         return (mpz_cmp_si(vl_, li) == 0);
  89:VeryLong.h    ****     }
  90:VeryLong.h    ****     bool operator!= (long int li) const
  91:VeryLong.h    ****     {
  92:VeryLong.h    ****         return (mpz_cmp_si(vl_, li) != 0);
  93:VeryLong.h    ****     }
  94:VeryLong.h    ****     bool is_zero() const
 1445              		.loc 2 94 10 view .LVU325
 1446              	.LBB552:
  95:VeryLong.h    ****     {
  96:VeryLong.h    ****         return (mpz_sgn(vl_) == 0);
 1447              		.loc 2 96 9 view .LVU326
 1448              		.loc 2 96 9 is_stmt 0 view .LVU327
 1449              	.LBE552:
 1450              	.LBE551:
GAS LISTING /tmp/cctiEWRC.s 			page 64


 1451              		.loc 1 94 5 discriminator 1 view .LVU328
 1452 0408 8B4B04   		movl	4(%rbx), %ecx
 1453 040b 85C9     		testl	%ecx, %ecx
 1454 040d 7521     		jne	.L60
  95:VeryLongModular.cpp ****     {
  96:VeryLongModular.cpp ****         return tmp.is_zero();
 1455              		.loc 1 96 9 is_stmt 1 view .LVU329
 1456              	.LVL117:
 1457              	.LBB553:
 1458              	.LBI553:
  94:VeryLong.h    ****     {
 1459              		.loc 2 94 10 view .LVU330
 1460              	.LBB554:
 1461              		.loc 2 96 9 view .LVU331
 1462              		.loc 2 96 34 is_stmt 0 view .LVU332
 1463 040f 8B150000 		movl	4+_ZZNK15VeryLongModulareqERK8VeryLongE3tmp(%rip), %edx
 1463      0000
 1464 0415 31C0     		xorl	%eax, %eax
 1465 0417 85D2     		testl	%edx, %edx
 1466 0419 0F94C0   		sete	%al
 1467              	.LBE554:
 1468              	.LBE553:
  97:VeryLongModular.cpp ****     }
  98:VeryLongModular.cpp **** 
  99:VeryLongModular.cpp ****     return (mpz_cmp(vl_, tmp.vl_) == 0);
 100:VeryLongModular.cpp **** }
 1469              		.loc 1 100 1 view .LVU333
 1470 041c 4883C408 		addq	$8, %rsp
 1471              		.cfi_remember_state
 1472              		.cfi_def_cfa_offset 40
 1473 0420 5B       		popq	%rbx
 1474              		.cfi_def_cfa_offset 32
 1475              	.LVL118:
 1476              		.loc 1 100 1 view .LVU334
 1477 0421 5D       		popq	%rbp
 1478              		.cfi_def_cfa_offset 24
 1479 0422 415C     		popq	%r12
 1480              		.cfi_def_cfa_offset 16
 1481              	.LVL119:
 1482              		.loc 1 100 1 view .LVU335
 1483 0424 415D     		popq	%r13
 1484              		.cfi_def_cfa_offset 8
 1485 0426 C3       		ret
 1486              	.LVL120:
 1487 0427 660F1F84 		.p2align 4,,10
 1487      00000000 
 1487      00
 1488              		.p2align 3
 1489              	.L60:
 1490              		.cfi_restore_state
  99:VeryLongModular.cpp **** }
 1491              		.loc 1 99 5 is_stmt 1 view .LVU336
  99:VeryLongModular.cpp **** }
 1492              		.loc 1 99 20 is_stmt 0 view .LVU337
 1493 0430 4889EE   		movq	%rbp, %rsi
 1494 0433 4C89E7   		movq	%r12, %rdi
 1495 0436 E8000000 		call	__gmpz_cmp@PLT
GAS LISTING /tmp/cctiEWRC.s 			page 65


 1495      00
 1496              	.LVL121:
  99:VeryLongModular.cpp **** }
 1497              		.loc 1 99 35 discriminator 1 view .LVU338
 1498 043b 85C0     		testl	%eax, %eax
 1499 043d 0F94C0   		sete	%al
 1500              		.loc 1 100 1 view .LVU339
 1501 0440 4883C408 		addq	$8, %rsp
 1502              		.cfi_remember_state
 1503              		.cfi_def_cfa_offset 40
 1504 0444 5B       		popq	%rbx
 1505              		.cfi_def_cfa_offset 32
 1506              	.LVL122:
  99:VeryLongModular.cpp **** }
 1507              		.loc 1 99 35 discriminator 1 view .LVU340
 1508 0445 0FB6C0   		movzbl	%al, %eax
 1509              		.loc 1 100 1 view .LVU341
 1510 0448 5D       		popq	%rbp
 1511              		.cfi_def_cfa_offset 24
 1512 0449 415C     		popq	%r12
 1513              		.cfi_def_cfa_offset 16
 1514              	.LVL123:
 1515              		.loc 1 100 1 view .LVU342
 1516 044b 415D     		popq	%r13
 1517              		.cfi_def_cfa_offset 8
 1518 044d C3       		ret
 1519              	.LVL124:
 1520 044e 6690     		.p2align 4,,10
 1521              		.p2align 3
 1522              	.L66:
 1523              		.cfi_restore_state
  92:VeryLongModular.cpp ****     mpz_mod(tmp.vl_, vl.vl_, modulus_);
 1524              		.loc 1 92 21 discriminator 1 view .LVU343
 1525 0450 4C8D2D00 		leaq	_ZGVZNK15VeryLongModulareqERK8VeryLongE3tmp(%rip), %r13
 1525      000000
 1526 0457 488D2D00 		leaq	_ZZNK15VeryLongModulareqERK8VeryLongE3tmp(%rip), %rbp
 1526      000000
 1527 045e 4C89EF   		movq	%r13, %rdi
 1528              	.LVL125:
  92:VeryLongModular.cpp ****     mpz_mod(tmp.vl_, vl.vl_, modulus_);
 1529              		.loc 1 92 21 discriminator 1 view .LVU344
 1530 0461 E8000000 		call	__cxa_guard_acquire@PLT
 1530      00
 1531              	.LVL126:
 1532 0466 85C0     		testl	%eax, %eax
 1533 0468 748C     		je	.L58
 1534              	.LVL127:
 1535              	.LBB555:
 1536              	.LBI555:
  22:VeryLong.h    ****     {
 1537              		.loc 2 22 5 is_stmt 1 view .LVU345
 1538              	.LBB556:
 1539              	.LBB557:
  24:VeryLong.h    ****     }
 1540              		.loc 2 24 9 view .LVU346
  24:VeryLong.h    ****     }
 1541              		.loc 2 24 17 is_stmt 0 view .LVU347
GAS LISTING /tmp/cctiEWRC.s 			page 66


 1542 046a 4889EF   		movq	%rbp, %rdi
 1543 046d E8000000 		call	__gmpz_init@PLT
 1543      00
 1544              	.LVL128:
  24:VeryLong.h    ****     }
 1545              		.loc 2 24 17 view .LVU348
 1546              	.LBE557:
 1547              	.LBE556:
 1548              	.LBE555:
  92:VeryLongModular.cpp ****     mpz_mod(tmp.vl_, vl.vl_, modulus_);
 1549              		.loc 1 92 21 discriminator 1 view .LVU349
 1550 0472 488D1500 		leaq	__dso_handle(%rip), %rdx
 1550      000000
 1551 0479 4889EE   		movq	%rbp, %rsi
 1552 047c 488D3D00 		leaq	_ZN8VeryLongD1Ev(%rip), %rdi
 1552      000000
 1553 0483 E8000000 		call	__cxa_atexit@PLT
 1553      00
 1554              	.LVL129:
  92:VeryLongModular.cpp ****     mpz_mod(tmp.vl_, vl.vl_, modulus_);
 1555              		.loc 1 92 21 discriminator 2 view .LVU350
 1556 0488 4C89EF   		movq	%r13, %rdi
 1557 048b E8000000 		call	__cxa_guard_release@PLT
 1557      00
 1558              	.LVL130:
 1559 0490 E961FFFF 		jmp	.L58
 1559      FF
 1560              		.cfi_endproc
 1561              	.LFE2597:
 1562              		.size	_ZNK15VeryLongModulareqERK8VeryLong, .-_ZNK15VeryLongModulareqERK8VeryLong
 1563 0495 90       		.align 2
 1564 0496 662E0F1F 		.p2align 4
 1564      84000000 
 1564      0000
 1565              		.globl	_ZNK15VeryLongModularneERKS_
 1566              		.type	_ZNK15VeryLongModularneERKS_, @function
 1567              	_ZNK15VeryLongModularneERKS_:
 1568              	.LVL131:
 1569              	.LFB2598:
 101:VeryLongModular.cpp **** 
 102:VeryLongModular.cpp **** int VeryLongModular::operator!= (const VeryLongModular& vl) const
 103:VeryLongModular.cpp **** {
 1570              		.loc 1 103 1 is_stmt 1 view -0
 1571              		.cfi_startproc
 1572              		.loc 1 103 1 is_stmt 0 view .LVU352
 1573 04a0 F30F1EFA 		endbr64
 104:VeryLongModular.cpp ****     return (mpz_cmp(vl_, vl.vl_) != 0);
 1574              		.loc 1 104 5 is_stmt 1 view .LVU353
 103:VeryLongModular.cpp ****     return (mpz_cmp(vl_, vl.vl_) != 0);
 1575              		.loc 1 103 1 is_stmt 0 view .LVU354
 1576 04a4 4883EC08 		subq	$8, %rsp
 1577              		.cfi_def_cfa_offset 16
 1578              		.loc 1 104 20 view .LVU355
 1579 04a8 E8000000 		call	__gmpz_cmp@PLT
 1579      00
 1580              	.LVL132:
 1581              		.loc 1 104 34 discriminator 1 view .LVU356
GAS LISTING /tmp/cctiEWRC.s 			page 67


 1582 04ad 85C0     		testl	%eax, %eax
 1583 04af 0F95C0   		setne	%al
 105:VeryLongModular.cpp **** }
 1584              		.loc 1 105 1 view .LVU357
 1585 04b2 4883C408 		addq	$8, %rsp
 1586              		.cfi_def_cfa_offset 8
 104:VeryLongModular.cpp ****     return (mpz_cmp(vl_, vl.vl_) != 0);
 1587              		.loc 1 104 34 discriminator 1 view .LVU358
 1588 04b6 0FB6C0   		movzbl	%al, %eax
 1589              		.loc 1 105 1 view .LVU359
 1590 04b9 C3       		ret
 1591              		.cfi_endproc
 1592              	.LFE2598:
 1593              		.size	_ZNK15VeryLongModularneERKS_, .-_ZNK15VeryLongModularneERKS_
 1594              		.align 2
 1595 04ba 660F1F44 		.p2align 4
 1595      0000
 1596              		.globl	_ZN15VeryLongModularaSERKS_
 1597              		.type	_ZN15VeryLongModularaSERKS_, @function
 1598              	_ZN15VeryLongModularaSERKS_:
 1599              	.LVL133:
 1600              	.LFB2599:
 106:VeryLongModular.cpp **** 
 107:VeryLongModular.cpp **** VeryLongModular& VeryLongModular::operator= (const VeryLongModular& vl)
 108:VeryLongModular.cpp **** {
 1601              		.loc 1 108 1 is_stmt 1 view -0
 1602              		.cfi_startproc
 1603              		.loc 1 108 1 is_stmt 0 view .LVU361
 1604 04c0 F30F1EFA 		endbr64
 109:VeryLongModular.cpp ****     if (this == &vl) return *this;
 1605              		.loc 1 109 5 is_stmt 1 view .LVU362
 108:VeryLongModular.cpp ****     if (this == &vl) return *this;
 1606              		.loc 1 108 1 is_stmt 0 view .LVU363
 1607 04c4 53       		pushq	%rbx
 1608              		.cfi_def_cfa_offset 16
 1609              		.cfi_offset 3, -16
 108:VeryLongModular.cpp ****     if (this == &vl) return *this;
 1610              		.loc 1 108 1 view .LVU364
 1611 04c5 4889FB   		movq	%rdi, %rbx
 1612              		.loc 1 109 5 view .LVU365
 1613 04c8 4839F7   		cmpq	%rsi, %rdi
 1614 04cb 7405     		je	.L70
 110:VeryLongModular.cpp ****     mpz_set(vl_, vl.vl_);
 1615              		.loc 1 110 5 is_stmt 1 view .LVU366
 1616              		.loc 1 110 12 is_stmt 0 view .LVU367
 1617 04cd E8000000 		call	__gmpz_set@PLT
 1617      00
 1618              	.LVL134:
 111:VeryLongModular.cpp ****     return *this;
 1619              		.loc 1 111 5 is_stmt 1 view .LVU368
 1620              	.L70:
 112:VeryLongModular.cpp **** }
 1621              		.loc 1 112 1 is_stmt 0 view .LVU369
 1622 04d2 4889D8   		movq	%rbx, %rax
 1623 04d5 5B       		popq	%rbx
 1624              		.cfi_def_cfa_offset 8
 1625              	.LVL135:
GAS LISTING /tmp/cctiEWRC.s 			page 68


 1626              		.loc 1 112 1 view .LVU370
 1627 04d6 C3       		ret
 1628              		.cfi_endproc
 1629              	.LFE2599:
 1630              		.size	_ZN15VeryLongModularaSERKS_, .-_ZN15VeryLongModularaSERKS_
 1631 04d7 90       		.align 2
 1632 04d8 0F1F8400 		.p2align 4
 1632      00000000 
 1633              		.globl	_ZN15VeryLongModularaSERK8VeryLong
 1634              		.type	_ZN15VeryLongModularaSERK8VeryLong, @function
 1635              	_ZN15VeryLongModularaSERK8VeryLong:
 1636              	.LVL136:
 1637              	.LFB2600:
 113:VeryLongModular.cpp **** 
 114:VeryLongModular.cpp **** VeryLongModular& VeryLongModular::operator= (const VeryLong& vl)
 115:VeryLongModular.cpp **** {
 1638              		.loc 1 115 1 is_stmt 1 view -0
 1639              		.cfi_startproc
 1640              		.loc 1 115 1 is_stmt 0 view .LVU372
 1641 04e0 F30F1EFA 		endbr64
 116:VeryLongModular.cpp ****     mpz_set(vl_, vl.vl_);
 1642              		.loc 1 116 5 is_stmt 1 view .LVU373
 115:VeryLongModular.cpp ****     mpz_set(vl_, vl.vl_);
 1643              		.loc 1 115 1 is_stmt 0 view .LVU374
 1644 04e4 53       		pushq	%rbx
 1645              		.cfi_def_cfa_offset 16
 1646              		.cfi_offset 3, -16
 115:VeryLongModular.cpp ****     mpz_set(vl_, vl.vl_);
 1647              		.loc 1 115 1 view .LVU375
 1648 04e5 4889FB   		movq	%rdi, %rbx
 1649              		.loc 1 116 12 view .LVU376
 1650 04e8 E8000000 		call	__gmpz_set@PLT
 1650      00
 1651              	.LVL137:
 117:VeryLongModular.cpp ****     mpz_mod(vl_, vl_, modulus_);
 1652              		.loc 1 117 5 is_stmt 1 view .LVU377
 1653              		.loc 1 117 12 is_stmt 0 view .LVU378
 1654 04ed 4889DE   		movq	%rbx, %rsi
 1655 04f0 4889DF   		movq	%rbx, %rdi
 1656 04f3 488D1500 		leaq	_ZN15VeryLongModular8modulus_E(%rip), %rdx
 1656      000000
 1657 04fa E8000000 		call	__gmpz_mod@PLT
 1657      00
 1658              	.LVL138:
 118:VeryLongModular.cpp ****     return *this;
 1659              		.loc 1 118 5 is_stmt 1 view .LVU379
 119:VeryLongModular.cpp **** }
 1660              		.loc 1 119 1 is_stmt 0 view .LVU380
 1661 04ff 4889D8   		movq	%rbx, %rax
 1662 0502 5B       		popq	%rbx
 1663              		.cfi_def_cfa_offset 8
 1664              	.LVL139:
 1665              		.loc 1 119 1 view .LVU381
 1666 0503 C3       		ret
 1667              		.cfi_endproc
 1668              	.LFE2600:
 1669              		.size	_ZN15VeryLongModularaSERK8VeryLong, .-_ZN15VeryLongModularaSERK8VeryLong
GAS LISTING /tmp/cctiEWRC.s 			page 69


 1670              		.section	.text.unlikely
 1671              	.LCOLDB1:
 1672              		.text
 1673              	.LHOTB1:
 1674 0504 66662E0F 		.p2align 4
 1674      1F840000 
 1674      00000090 
 1675              		.section	.text.unlikely
 1676              	.Ltext_cold0:
 1677              		.text
 1678              		.globl	_ZplRK15VeryLongModularS1_
 1679              		.type	_ZplRK15VeryLongModularS1_, @function
 1680              	_ZplRK15VeryLongModularS1_:
 1681              	.LVL140:
 1682              	.LFB2601:
 120:VeryLongModular.cpp **** 
 121:VeryLongModular.cpp **** VeryLongModular operator+ (const VeryLongModular& vl1, const VeryLongModular& vl2)
 122:VeryLongModular.cpp **** {
 1683              		.loc 1 122 1 is_stmt 1 view -0
 1684              		.cfi_startproc
 1685              		.cfi_personality 0x9b,DW.ref.__gxx_personality_v0
 1686              		.cfi_lsda 0x1b,.LLSDA2601
 1687              		.loc 1 122 1 is_stmt 0 view .LVU383
 1688 0510 F30F1EFA 		endbr64
 123:VeryLongModular.cpp ****     static VeryLongModular vl;
 1689              		.loc 1 123 5 is_stmt 1 view .LVU384
 122:VeryLongModular.cpp ****     static VeryLongModular vl;
 1690              		.loc 1 122 1 is_stmt 0 view .LVU385
 1691 0514 4157     		pushq	%r15
 1692              		.cfi_def_cfa_offset 16
 1693              		.cfi_offset 15, -16
 1694 0516 4156     		pushq	%r14
 1695              		.cfi_def_cfa_offset 24
 1696              		.cfi_offset 14, -24
 1697 0518 4C8D3500 		leaq	_ZN15VeryLongModular8modulus_E(%rip), %r14
 1697      000000
 1698 051f 4155     		pushq	%r13
 1699              		.cfi_def_cfa_offset 32
 1700              		.cfi_offset 13, -32
 1701 0521 4989D5   		movq	%rdx, %r13
 1702 0524 4154     		pushq	%r12
 1703              		.cfi_def_cfa_offset 40
 1704              		.cfi_offset 12, -40
 1705 0526 4989F4   		movq	%rsi, %r12
 1706 0529 55       		pushq	%rbp
 1707              		.cfi_def_cfa_offset 48
 1708              		.cfi_offset 6, -48
 1709 052a 4889FD   		movq	%rdi, %rbp
 1710 052d 53       		pushq	%rbx
 1711              		.cfi_def_cfa_offset 56
 1712              		.cfi_offset 3, -56
 1713 052e 488D1D00 		leaq	_ZZplRK15VeryLongModularS1_E2vl(%rip), %rbx
 1713      000000
 1714 0535 4883EC08 		subq	$8, %rsp
 1715              		.cfi_def_cfa_offset 64
 1716              		.loc 1 123 28 view .LVU386
 1717 0539 0FB60500 		movzbl	_ZGVZplRK15VeryLongModularS1_E2vl(%rip), %eax
GAS LISTING /tmp/cctiEWRC.s 			page 70


 1717      000000
 1718              		.loc 1 123 28 discriminator 1 view .LVU387
 1719 0540 84C0     		testb	%al, %al
 1720 0542 7521     		jne	.L76
 1721 0544 4C8D3D00 		leaq	_ZGVZplRK15VeryLongModularS1_E2vl(%rip), %r15
 1721      000000
 1722 054b 4C8D3500 		leaq	_ZN15VeryLongModular8modulus_E(%rip), %r14
 1722      000000
 1723 0552 4C89FF   		movq	%r15, %rdi
 1724              	.LVL141:
 1725              		.loc 1 123 28 discriminator 1 view .LVU388
 1726 0555 488D1D00 		leaq	_ZZplRK15VeryLongModularS1_E2vl(%rip), %rbx
 1726      000000
 1727 055c E8000000 		call	__cxa_guard_acquire@PLT
 1727      00
 1728              	.LVL142:
 1729              		.loc 1 123 28 discriminator 1 view .LVU389
 1730 0561 85C0     		testl	%eax, %eax
 1731 0563 753B     		jne	.L87
 1732              	.L76:
 124:VeryLongModular.cpp ****     mpz_add(vl.vl_, vl1.vl_, vl2.vl_);
 1733              		.loc 1 124 5 is_stmt 1 view .LVU390
 1734              		.loc 1 124 12 is_stmt 0 view .LVU391
 1735 0565 4C89EA   		movq	%r13, %rdx
 1736 0568 4C89E6   		movq	%r12, %rsi
 1737 056b 4889DF   		movq	%rbx, %rdi
 1738              	.LEHB2:
 1739 056e E8000000 		call	__gmpz_add@PLT
 1739      00
 1740              	.LVL143:
 125:VeryLongModular.cpp ****     mpz_mod(vl.vl_, vl.vl_, VeryLongModular::modulus_);
 1741              		.loc 1 125 5 is_stmt 1 view .LVU392
 1742              		.loc 1 125 12 is_stmt 0 view .LVU393
 1743 0573 4C89F2   		movq	%r14, %rdx
 1744 0576 4889DE   		movq	%rbx, %rsi
 1745 0579 4889DF   		movq	%rbx, %rdi
 1746 057c E8000000 		call	__gmpz_mod@PLT
 1746      00
 1747              	.LVL144:
 126:VeryLongModular.cpp ****     return vl;
 1748              		.loc 1 126 5 is_stmt 1 view .LVU394
 1749              	.LBB565:
 1750              	.LBI565:
  24:VeryLongModular.cpp **** {
 1751              		.loc 1 24 1 view .LVU395
 1752              	.LBB566:
  26:VeryLongModular.cpp **** }
 1753              		.loc 1 26 5 view .LVU396
  26:VeryLongModular.cpp **** }
 1754              		.loc 1 26 17 is_stmt 0 view .LVU397
 1755 0581 4889DE   		movq	%rbx, %rsi
 1756 0584 4889EF   		movq	%rbp, %rdi
 1757 0587 E8000000 		call	__gmpz_init_set@PLT
 1757      00
 1758              	.LVL145:
 1759              	.LEHE2:
  26:VeryLongModular.cpp **** }
GAS LISTING /tmp/cctiEWRC.s 			page 71


 1760              		.loc 1 26 17 view .LVU398
 1761              	.LBE566:
 1762              	.LBE565:
 127:VeryLongModular.cpp **** }
 1763              		.loc 1 127 1 view .LVU399
 1764 058c 4883C408 		addq	$8, %rsp
 1765              		.cfi_remember_state
 1766              		.cfi_def_cfa_offset 56
 1767 0590 4889E8   		movq	%rbp, %rax
 1768 0593 5B       		popq	%rbx
 1769              		.cfi_def_cfa_offset 48
 1770 0594 5D       		popq	%rbp
 1771              		.cfi_def_cfa_offset 40
 1772              	.LVL146:
 1773              		.loc 1 127 1 view .LVU400
 1774 0595 415C     		popq	%r12
 1775              		.cfi_def_cfa_offset 32
 1776              	.LVL147:
 1777              		.loc 1 127 1 view .LVU401
 1778 0597 415D     		popq	%r13
 1779              		.cfi_def_cfa_offset 24
 1780              	.LVL148:
 1781              		.loc 1 127 1 view .LVU402
 1782 0599 415E     		popq	%r14
 1783              		.cfi_def_cfa_offset 16
 1784 059b 415F     		popq	%r15
 1785              		.cfi_def_cfa_offset 8
 1786 059d C3       		ret
 1787              	.LVL149:
 1788 059e 6690     		.p2align 4,,10
 1789              		.p2align 3
 1790              	.L87:
 1791              		.cfi_restore_state
 1792              	.LBB567:
 1793              	.LBI567:
   6:VeryLongModular.cpp **** {
 1794              		.loc 1 6 1 is_stmt 1 view .LVU403
 1795              	.LBB568:
 1796              	.LBB569:
   8:VeryLongModular.cpp ****     mpz_init(vl_);
 1797              		.loc 1 8 5 view .LVU404
 1798              	.LBB570:
 1799              	.LBI570:
  92:VeryLongModular.h ****     {
 1800              		.loc 8 92 17 view .LVU405
 1801              	.LBB571:
  94:VeryLongModular.h ****         {
 1802              		.loc 8 94 9 view .LVU406
 1803 05a0 8B050000 		movl	_ZN15VeryLongModular14staticInitDoneE(%rip), %eax
 1803      0000
 1804 05a6 85C0     		testl	%eax, %eax
 1805 05a8 7436     		je	.L88
 1806              	.L78:
 1807              	.LBE571:
 1808              	.LBE570:
   9:VeryLongModular.cpp **** }
 1809              		.loc 1 9 5 view .LVU407
GAS LISTING /tmp/cctiEWRC.s 			page 72


   9:VeryLongModular.cpp **** }
 1810              		.loc 1 9 13 is_stmt 0 view .LVU408
 1811 05aa 488D1D00 		leaq	_ZZplRK15VeryLongModularS1_E2vl(%rip), %rbx
 1811      000000
 1812 05b1 4889DF   		movq	%rbx, %rdi
 1813 05b4 E8000000 		call	__gmpz_init@PLT
 1813      00
 1814              	.LVL150:
   9:VeryLongModular.cpp **** }
 1815              		.loc 1 9 13 view .LVU409
 1816              	.LBE569:
 1817              	.LBE568:
 1818              	.LBE567:
 123:VeryLongModular.cpp ****     mpz_add(vl.vl_, vl1.vl_, vl2.vl_);
 1819              		.loc 1 123 28 discriminator 4 view .LVU410
 1820 05b9 488D1500 		leaq	__dso_handle(%rip), %rdx
 1820      000000
 1821 05c0 4889DE   		movq	%rbx, %rsi
 1822 05c3 488D3D00 		leaq	_ZN15VeryLongModularD1Ev(%rip), %rdi
 1822      000000
 1823 05ca E8000000 		call	__cxa_atexit@PLT
 1823      00
 1824              	.LVL151:
 123:VeryLongModular.cpp ****     mpz_add(vl.vl_, vl1.vl_, vl2.vl_);
 1825              		.loc 1 123 28 discriminator 1 view .LVU411
 1826 05cf 4C89FF   		movq	%r15, %rdi
 1827 05d2 E8000000 		call	__cxa_guard_release@PLT
 1827      00
 1828              	.LVL152:
 1829 05d7 EB8C     		jmp	.L76
 1830              	.LVL153:
 1831 05d9 0F1F8000 		.p2align 4,,10
 1831      000000
 1832              		.p2align 3
 1833              	.L88:
 1834              	.LBB576:
 1835              	.LBB575:
 1836              	.LBB574:
 1837              	.LBB573:
 1838              	.LBB572:
  96:VeryLongModular.h ****             mpz_set_ui(modulus_, 1L);
 1839              		.loc 8 96 13 is_stmt 1 view .LVU412
  96:VeryLongModular.h ****             mpz_set_ui(modulus_, 1L);
 1840              		.loc 8 96 21 is_stmt 0 view .LVU413
 1841 05e0 4C89F7   		movq	%r14, %rdi
 1842 05e3 E8000000 		call	__gmpz_init@PLT
 1842      00
 1843              	.LVL154:
  97:VeryLongModular.h ****             staticInitDone = 1;
 1844              		.loc 8 97 13 is_stmt 1 view .LVU414
  97:VeryLongModular.h ****             staticInitDone = 1;
 1845              		.loc 8 97 23 is_stmt 0 view .LVU415
 1846 05e8 BE010000 		movl	$1, %esi
 1846      00
 1847 05ed 4C89F7   		movq	%r14, %rdi
 1848              	.LEHB3:
 1849 05f0 E8000000 		call	__gmpz_set_ui@PLT
GAS LISTING /tmp/cctiEWRC.s 			page 73


 1849      00
 1850              	.LVL155:
 1851              	.LEHE3:
 1852              		.loc 8 98 13 is_stmt 1 view .LVU416
 1853              		.loc 8 98 28 is_stmt 0 view .LVU417
 1854 05f5 C7050000 		movl	$1, _ZN15VeryLongModular14staticInitDoneE(%rip)
 1854      00000100 
 1854      0000
 1855 05ff EBA9     		jmp	.L78
 1856              	.L80:
 1857 0601 F30F1EFA 		endbr64
 1858              	.LBE572:
 1859              	.LBE573:
 1860              	.LBE574:
 1861              	.LBE575:
 1862              	.LBE576:
 123:VeryLongModular.cpp ****     mpz_add(vl.vl_, vl1.vl_, vl2.vl_);
 1863              		.loc 1 123 28 discriminator 5 view .LVU418
 1864 0605 4889C3   		movq	%rax, %rbx
 1865 0608 E9000000 		jmp	.L79
 1865      00
 1866              		.section	.gcc_except_table
 1867              	.LLSDA2601:
 1868 0015 FF       		.byte	0xff
 1869 0016 FF       		.byte	0xff
 1870 0017 01       		.byte	0x1
 1871 0018 0A       		.uleb128 .LLSDACSE2601-.LLSDACSB2601
 1872              	.LLSDACSB2601:
 1873 0019 5E       		.uleb128 .LEHB2-.LFB2601
 1874 001a 1E       		.uleb128 .LEHE2-.LEHB2
 1875 001b 00       		.uleb128 0
 1876 001c 00       		.uleb128 0
 1877 001d E001     		.uleb128 .LEHB3-.LFB2601
 1878 001f 05       		.uleb128 .LEHE3-.LEHB3
 1879 0020 F101     		.uleb128 .L80-.LFB2601
 1880 0022 00       		.uleb128 0
 1881              	.LLSDACSE2601:
 1882              		.text
 1883              		.cfi_endproc
 1884              		.section	.text.unlikely
 1885              		.cfi_startproc
 1886              		.cfi_personality 0x9b,DW.ref.__gxx_personality_v0
 1887              		.cfi_lsda 0x1b,.LLSDAC2601
 1888              		.type	_ZplRK15VeryLongModularS1_.cold, @function
 1889              	_ZplRK15VeryLongModularS1_.cold:
 1890              	.LFSB2601:
 1891              	.L79:
 1892              		.cfi_def_cfa_offset 64
 1893              		.cfi_offset 3, -56
 1894              		.cfi_offset 6, -48
 1895              		.cfi_offset 12, -40
 1896              		.cfi_offset 13, -32
 1897              		.cfi_offset 14, -24
 1898              		.cfi_offset 15, -16
 1899 00c1 4C89FF   		movq	%r15, %rdi
 1900 00c4 E8000000 		call	__cxa_guard_abort@PLT
 1900      00
GAS LISTING /tmp/cctiEWRC.s 			page 74


 1901              	.LVL156:
 1902 00c9 4889DF   		movq	%rbx, %rdi
 1903              	.LEHB4:
 1904 00cc E8000000 		call	_Unwind_Resume@PLT
 1904      00
 1905              	.LVL157:
 1906              	.LEHE4:
 1907              		.cfi_endproc
 1908              	.LFE2601:
 1909              		.section	.gcc_except_table
 1910              	.LLSDAC2601:
 1911 0023 FF       		.byte	0xff
 1912 0024 FF       		.byte	0xff
 1913 0025 01       		.byte	0x1
 1914 0026 04       		.uleb128 .LLSDACSEC2601-.LLSDACSBC2601
 1915              	.LLSDACSBC2601:
 1916 0027 0B       		.uleb128 .LEHB4-.LCOLDB1
 1917 0028 05       		.uleb128 .LEHE4-.LEHB4
 1918 0029 00       		.uleb128 0
 1919 002a 00       		.uleb128 0
 1920              	.LLSDACSEC2601:
 1921              		.section	.text.unlikely
 1922              		.text
 1923              		.size	_ZplRK15VeryLongModularS1_, .-_ZplRK15VeryLongModularS1_
 1924              		.section	.text.unlikely
 1925              		.size	_ZplRK15VeryLongModularS1_.cold, .-_ZplRK15VeryLongModularS1_.cold
 1926              	.LCOLDE1:
 1927              		.text
 1928              	.LHOTE1:
 1929              		.section	.text.unlikely
 1930              	.LCOLDB2:
 1931              		.text
 1932              	.LHOTB2:
 1933 060d 0F1F00   		.p2align 4
 1934              		.globl	_ZmiRK15VeryLongModularS1_
 1935              		.type	_ZmiRK15VeryLongModularS1_, @function
 1936              	_ZmiRK15VeryLongModularS1_:
 1937              	.LVL158:
 1938              	.LFB2602:
 128:VeryLongModular.cpp **** 
 129:VeryLongModular.cpp **** VeryLongModular operator- (const VeryLongModular& vl1, const VeryLongModular& vl2)
 130:VeryLongModular.cpp **** {
 1939              		.loc 1 130 1 is_stmt 1 view -0
 1940              		.cfi_startproc
 1941              		.cfi_personality 0x9b,DW.ref.__gxx_personality_v0
 1942              		.cfi_lsda 0x1b,.LLSDA2602
 1943              		.loc 1 130 1 is_stmt 0 view .LVU420
 1944 0610 F30F1EFA 		endbr64
 131:VeryLongModular.cpp ****     static VeryLongModular vl;
 1945              		.loc 1 131 5 is_stmt 1 view .LVU421
 130:VeryLongModular.cpp ****     static VeryLongModular vl;
 1946              		.loc 1 130 1 is_stmt 0 view .LVU422
 1947 0614 4157     		pushq	%r15
 1948              		.cfi_def_cfa_offset 16
 1949              		.cfi_offset 15, -16
 1950 0616 4156     		pushq	%r14
 1951              		.cfi_def_cfa_offset 24
GAS LISTING /tmp/cctiEWRC.s 			page 75


 1952              		.cfi_offset 14, -24
 1953 0618 4C8D3500 		leaq	_ZN15VeryLongModular8modulus_E(%rip), %r14
 1953      000000
 1954 061f 4155     		pushq	%r13
 1955              		.cfi_def_cfa_offset 32
 1956              		.cfi_offset 13, -32
 1957 0621 4989D5   		movq	%rdx, %r13
 1958 0624 4154     		pushq	%r12
 1959              		.cfi_def_cfa_offset 40
 1960              		.cfi_offset 12, -40
 1961 0626 4989F4   		movq	%rsi, %r12
 1962 0629 55       		pushq	%rbp
 1963              		.cfi_def_cfa_offset 48
 1964              		.cfi_offset 6, -48
 1965 062a 4889FD   		movq	%rdi, %rbp
 1966 062d 53       		pushq	%rbx
 1967              		.cfi_def_cfa_offset 56
 1968              		.cfi_offset 3, -56
 1969 062e 488D1D00 		leaq	_ZZmiRK15VeryLongModularS1_E2vl(%rip), %rbx
 1969      000000
 1970 0635 4883EC08 		subq	$8, %rsp
 1971              		.cfi_def_cfa_offset 64
 1972              		.loc 1 131 28 view .LVU423
 1973 0639 0FB60500 		movzbl	_ZGVZmiRK15VeryLongModularS1_E2vl(%rip), %eax
 1973      000000
 1974              		.loc 1 131 28 discriminator 1 view .LVU424
 1975 0640 84C0     		testb	%al, %al
 1976 0642 7521     		jne	.L91
 1977 0644 4C8D3D00 		leaq	_ZGVZmiRK15VeryLongModularS1_E2vl(%rip), %r15
 1977      000000
 1978 064b 4C8D3500 		leaq	_ZN15VeryLongModular8modulus_E(%rip), %r14
 1978      000000
 1979 0652 4C89FF   		movq	%r15, %rdi
 1980              	.LVL159:
 1981              		.loc 1 131 28 discriminator 1 view .LVU425
 1982 0655 488D1D00 		leaq	_ZZmiRK15VeryLongModularS1_E2vl(%rip), %rbx
 1982      000000
 1983 065c E8000000 		call	__cxa_guard_acquire@PLT
 1983      00
 1984              	.LVL160:
 1985              		.loc 1 131 28 discriminator 1 view .LVU426
 1986 0661 85C0     		testl	%eax, %eax
 1987 0663 753B     		jne	.L102
 1988              	.L91:
 132:VeryLongModular.cpp ****     mpz_sub(vl.vl_, vl1.vl_, vl2.vl_);
 1989              		.loc 1 132 5 is_stmt 1 view .LVU427
 1990              		.loc 1 132 12 is_stmt 0 view .LVU428
 1991 0665 4C89EA   		movq	%r13, %rdx
 1992 0668 4C89E6   		movq	%r12, %rsi
 1993 066b 4889DF   		movq	%rbx, %rdi
 1994              	.LEHB5:
 1995 066e E8000000 		call	__gmpz_sub@PLT
 1995      00
 1996              	.LVL161:
 133:VeryLongModular.cpp ****     mpz_mod(vl.vl_, vl.vl_, VeryLongModular::modulus_);
 1997              		.loc 1 133 5 is_stmt 1 view .LVU429
 1998              		.loc 1 133 12 is_stmt 0 view .LVU430
GAS LISTING /tmp/cctiEWRC.s 			page 76


 1999 0673 4C89F2   		movq	%r14, %rdx
 2000 0676 4889DE   		movq	%rbx, %rsi
 2001 0679 4889DF   		movq	%rbx, %rdi
 2002 067c E8000000 		call	__gmpz_mod@PLT
 2002      00
 2003              	.LVL162:
 134:VeryLongModular.cpp ****     return vl;
 2004              		.loc 1 134 5 is_stmt 1 view .LVU431
 2005              	.LBB584:
 2006              	.LBI584:
  24:VeryLongModular.cpp **** {
 2007              		.loc 1 24 1 view .LVU432
 2008              	.LBB585:
  26:VeryLongModular.cpp **** }
 2009              		.loc 1 26 5 view .LVU433
  26:VeryLongModular.cpp **** }
 2010              		.loc 1 26 17 is_stmt 0 view .LVU434
 2011 0681 4889DE   		movq	%rbx, %rsi
 2012 0684 4889EF   		movq	%rbp, %rdi
 2013 0687 E8000000 		call	__gmpz_init_set@PLT
 2013      00
 2014              	.LVL163:
 2015              	.LEHE5:
  26:VeryLongModular.cpp **** }
 2016              		.loc 1 26 17 view .LVU435
 2017              	.LBE585:
 2018              	.LBE584:
 135:VeryLongModular.cpp **** }
 2019              		.loc 1 135 1 view .LVU436
 2020 068c 4883C408 		addq	$8, %rsp
 2021              		.cfi_remember_state
 2022              		.cfi_def_cfa_offset 56
 2023 0690 4889E8   		movq	%rbp, %rax
 2024 0693 5B       		popq	%rbx
 2025              		.cfi_def_cfa_offset 48
 2026 0694 5D       		popq	%rbp
 2027              		.cfi_def_cfa_offset 40
 2028              	.LVL164:
 2029              		.loc 1 135 1 view .LVU437
 2030 0695 415C     		popq	%r12
 2031              		.cfi_def_cfa_offset 32
 2032              	.LVL165:
 2033              		.loc 1 135 1 view .LVU438
 2034 0697 415D     		popq	%r13
 2035              		.cfi_def_cfa_offset 24
 2036              	.LVL166:
 2037              		.loc 1 135 1 view .LVU439
 2038 0699 415E     		popq	%r14
 2039              		.cfi_def_cfa_offset 16
 2040 069b 415F     		popq	%r15
 2041              		.cfi_def_cfa_offset 8
 2042 069d C3       		ret
 2043              	.LVL167:
 2044 069e 6690     		.p2align 4,,10
 2045              		.p2align 3
 2046              	.L102:
 2047              		.cfi_restore_state
GAS LISTING /tmp/cctiEWRC.s 			page 77


 2048              	.LBB586:
 2049              	.LBI586:
   6:VeryLongModular.cpp **** {
 2050              		.loc 1 6 1 is_stmt 1 view .LVU440
 2051              	.LBB587:
 2052              	.LBB588:
   8:VeryLongModular.cpp ****     mpz_init(vl_);
 2053              		.loc 1 8 5 view .LVU441
 2054              	.LBB589:
 2055              	.LBI589:
  92:VeryLongModular.h ****     {
 2056              		.loc 8 92 17 view .LVU442
 2057              	.LBB590:
  94:VeryLongModular.h ****         {
 2058              		.loc 8 94 9 view .LVU443
 2059 06a0 8B050000 		movl	_ZN15VeryLongModular14staticInitDoneE(%rip), %eax
 2059      0000
 2060 06a6 85C0     		testl	%eax, %eax
 2061 06a8 7436     		je	.L103
 2062              	.L93:
 2063              	.LBE590:
 2064              	.LBE589:
   9:VeryLongModular.cpp **** }
 2065              		.loc 1 9 5 view .LVU444
   9:VeryLongModular.cpp **** }
 2066              		.loc 1 9 13 is_stmt 0 view .LVU445
 2067 06aa 488D1D00 		leaq	_ZZmiRK15VeryLongModularS1_E2vl(%rip), %rbx
 2067      000000
 2068 06b1 4889DF   		movq	%rbx, %rdi
 2069 06b4 E8000000 		call	__gmpz_init@PLT
 2069      00
 2070              	.LVL168:
   9:VeryLongModular.cpp **** }
 2071              		.loc 1 9 13 view .LVU446
 2072              	.LBE588:
 2073              	.LBE587:
 2074              	.LBE586:
 131:VeryLongModular.cpp ****     mpz_sub(vl.vl_, vl1.vl_, vl2.vl_);
 2075              		.loc 1 131 28 discriminator 4 view .LVU447
 2076 06b9 488D1500 		leaq	__dso_handle(%rip), %rdx
 2076      000000
 2077 06c0 4889DE   		movq	%rbx, %rsi
 2078 06c3 488D3D00 		leaq	_ZN15VeryLongModularD1Ev(%rip), %rdi
 2078      000000
 2079 06ca E8000000 		call	__cxa_atexit@PLT
 2079      00
 2080              	.LVL169:
 131:VeryLongModular.cpp ****     mpz_sub(vl.vl_, vl1.vl_, vl2.vl_);
 2081              		.loc 1 131 28 discriminator 1 view .LVU448
 2082 06cf 4C89FF   		movq	%r15, %rdi
 2083 06d2 E8000000 		call	__cxa_guard_release@PLT
 2083      00
 2084              	.LVL170:
 2085 06d7 EB8C     		jmp	.L91
 2086              	.LVL171:
 2087 06d9 0F1F8000 		.p2align 4,,10
 2087      000000
GAS LISTING /tmp/cctiEWRC.s 			page 78


 2088              		.p2align 3
 2089              	.L103:
 2090              	.LBB595:
 2091              	.LBB594:
 2092              	.LBB593:
 2093              	.LBB592:
 2094              	.LBB591:
  96:VeryLongModular.h ****             mpz_set_ui(modulus_, 1L);
 2095              		.loc 8 96 13 is_stmt 1 view .LVU449
  96:VeryLongModular.h ****             mpz_set_ui(modulus_, 1L);
 2096              		.loc 8 96 21 is_stmt 0 view .LVU450
 2097 06e0 4C89F7   		movq	%r14, %rdi
 2098 06e3 E8000000 		call	__gmpz_init@PLT
 2098      00
 2099              	.LVL172:
  97:VeryLongModular.h ****             staticInitDone = 1;
 2100              		.loc 8 97 13 is_stmt 1 view .LVU451
  97:VeryLongModular.h ****             staticInitDone = 1;
 2101              		.loc 8 97 23 is_stmt 0 view .LVU452
 2102 06e8 BE010000 		movl	$1, %esi
 2102      00
 2103 06ed 4C89F7   		movq	%r14, %rdi
 2104              	.LEHB6:
 2105 06f0 E8000000 		call	__gmpz_set_ui@PLT
 2105      00
 2106              	.LVL173:
 2107              	.LEHE6:
 2108              		.loc 8 98 13 is_stmt 1 view .LVU453
 2109              		.loc 8 98 28 is_stmt 0 view .LVU454
 2110 06f5 C7050000 		movl	$1, _ZN15VeryLongModular14staticInitDoneE(%rip)
 2110      00000100 
 2110      0000
 2111 06ff EBA9     		jmp	.L93
 2112              	.L95:
 2113 0701 F30F1EFA 		endbr64
 2114              	.LBE591:
 2115              	.LBE592:
 2116              	.LBE593:
 2117              	.LBE594:
 2118              	.LBE595:
 131:VeryLongModular.cpp ****     mpz_sub(vl.vl_, vl1.vl_, vl2.vl_);
 2119              		.loc 1 131 28 discriminator 5 view .LVU455
 2120 0705 4889C3   		movq	%rax, %rbx
 2121 0708 E9000000 		jmp	.L94
 2121      00
 2122              		.section	.gcc_except_table
 2123              	.LLSDA2602:
 2124 002b FF       		.byte	0xff
 2125 002c FF       		.byte	0xff
 2126 002d 01       		.byte	0x1
 2127 002e 0A       		.uleb128 .LLSDACSE2602-.LLSDACSB2602
 2128              	.LLSDACSB2602:
 2129 002f 5E       		.uleb128 .LEHB5-.LFB2602
 2130 0030 1E       		.uleb128 .LEHE5-.LEHB5
 2131 0031 00       		.uleb128 0
 2132 0032 00       		.uleb128 0
 2133 0033 E001     		.uleb128 .LEHB6-.LFB2602
GAS LISTING /tmp/cctiEWRC.s 			page 79


 2134 0035 05       		.uleb128 .LEHE6-.LEHB6
 2135 0036 F101     		.uleb128 .L95-.LFB2602
 2136 0038 00       		.uleb128 0
 2137              	.LLSDACSE2602:
 2138              		.text
 2139              		.cfi_endproc
 2140              		.section	.text.unlikely
 2141              		.cfi_startproc
 2142              		.cfi_personality 0x9b,DW.ref.__gxx_personality_v0
 2143              		.cfi_lsda 0x1b,.LLSDAC2602
 2144              		.type	_ZmiRK15VeryLongModularS1_.cold, @function
 2145              	_ZmiRK15VeryLongModularS1_.cold:
 2146              	.LFSB2602:
 2147              	.L94:
 2148              		.cfi_def_cfa_offset 64
 2149              		.cfi_offset 3, -56
 2150              		.cfi_offset 6, -48
 2151              		.cfi_offset 12, -40
 2152              		.cfi_offset 13, -32
 2153              		.cfi_offset 14, -24
 2154              		.cfi_offset 15, -16
 2155 00d1 4C89FF   		movq	%r15, %rdi
 2156 00d4 E8000000 		call	__cxa_guard_abort@PLT
 2156      00
 2157              	.LVL174:
 2158 00d9 4889DF   		movq	%rbx, %rdi
 2159              	.LEHB7:
 2160 00dc E8000000 		call	_Unwind_Resume@PLT
 2160      00
 2161              	.LVL175:
 2162              	.LEHE7:
 2163              		.cfi_endproc
 2164              	.LFE2602:
 2165              		.section	.gcc_except_table
 2166              	.LLSDAC2602:
 2167 0039 FF       		.byte	0xff
 2168 003a FF       		.byte	0xff
 2169 003b 01       		.byte	0x1
 2170 003c 04       		.uleb128 .LLSDACSEC2602-.LLSDACSBC2602
 2171              	.LLSDACSBC2602:
 2172 003d 0B       		.uleb128 .LEHB7-.LCOLDB2
 2173 003e 05       		.uleb128 .LEHE7-.LEHB7
 2174 003f 00       		.uleb128 0
 2175 0040 00       		.uleb128 0
